	.file	"main.cpp"
# GNU C++14 (Ubuntu 9.3.0-17ubuntu1~20.04) version 9.3.0 (x86_64-linux-gnu)
#	compiled by GNU C version 9.3.0, GMP version 6.2.0, MPFR version 4.0.2, MPC version 1.1.0, isl version isl-0.22.1-GMP

# GGC heuristics: --param ggc-min-expand=100 --param ggc-min-heapsize=131072
# options passed:  -imultiarch x86_64-linux-gnu -D_GNU_SOURCE main.cpp
# -mavx -mfma -mavx2 -mtune=generic -march=x86-64 -auxbase-strip main.s -g
# -O3 -fverbose-asm -fopt-info-vec-missed -fopt-info-vec
# -fasynchronous-unwind-tables -fstack-protector-strong -Wformat
# -Wformat-security -fstack-clash-protection -fcf-protection
# options enabled:  -fPIC -fPIE -faggressive-loop-optimizations
# -falign-functions -falign-jumps -falign-labels -falign-loops
# -fassume-phsa -fasynchronous-unwind-tables -fauto-inc-dec
# -fbranch-count-reg -fcaller-saves -fcode-hoisting
# -fcombine-stack-adjustments -fcommon -fcompare-elim -fcprop-registers
# -fcrossjumping -fcse-follow-jumps -fdefer-pop
# -fdelete-null-pointer-checks -fdevirtualize -fdevirtualize-speculatively
# -fdwarf2-cfi-asm -fearly-inlining -feliminate-unused-debug-types
# -fexceptions -fexpensive-optimizations -fforward-propagate
# -ffp-int-builtin-inexact -ffunction-cse -fgcse -fgcse-after-reload
# -fgcse-lm -fgnu-runtime -fgnu-unique -fguess-branch-probability
# -fhoist-adjacent-loads -fident -fif-conversion -fif-conversion2
# -findirect-inlining -finline -finline-atomics -finline-functions
# -finline-functions-called-once -finline-small-functions -fipa-bit-cp
# -fipa-cp -fipa-cp-clone -fipa-icf -fipa-icf-functions -fipa-icf-variables
# -fipa-profile -fipa-pure-const -fipa-ra -fipa-reference
# -fipa-reference-addressable -fipa-sra -fipa-stack-alignment -fipa-vrp
# -fira-hoist-pressure -fira-share-save-slots -fira-share-spill-slots
# -fisolate-erroneous-paths-dereference -fivopts -fkeep-static-consts
# -fleading-underscore -flifetime-dse -floop-interchange
# -floop-unroll-and-jam -flra-remat -flto-odr-type-merging -fmath-errno
# -fmerge-constants -fmerge-debug-strings -fmove-loop-invariants
# -fomit-frame-pointer -foptimize-sibling-calls -foptimize-strlen
# -fpartial-inlining -fpeel-loops -fpeephole -fpeephole2 -fplt
# -fpredictive-commoning -fprefetch-loop-arrays -free -freg-struct-return
# -freorder-blocks -freorder-blocks-and-partition -freorder-functions
# -frerun-cse-after-loop -fsched-critical-path-heuristic
# -fsched-dep-count-heuristic -fsched-group-heuristic -fsched-interblock
# -fsched-last-insn-heuristic -fsched-rank-heuristic -fsched-spec
# -fsched-spec-insn-heuristic -fsched-stalled-insns-dep -fschedule-fusion
# -fschedule-insns2 -fsemantic-interposition -fshow-column -fshrink-wrap
# -fshrink-wrap-separate -fsigned-zeros -fsplit-ivs-in-unroller
# -fsplit-loops -fsplit-paths -fsplit-wide-types -fssa-backprop
# -fssa-phiopt -fstack-clash-protection -fstack-protector-strong
# -fstdarg-opt -fstore-merging -fstrict-aliasing
# -fstrict-volatile-bitfields -fsync-libcalls -fthread-jumps
# -ftoplevel-reorder -ftrapping-math -ftree-bit-ccp -ftree-builtin-call-dce
# -ftree-ccp -ftree-ch -ftree-coalesce-vars -ftree-copy-prop -ftree-cselim
# -ftree-dce -ftree-dominator-opts -ftree-dse -ftree-forwprop -ftree-fre
# -ftree-loop-distribute-patterns -ftree-loop-distribution
# -ftree-loop-if-convert -ftree-loop-im -ftree-loop-ivcanon
# -ftree-loop-optimize -ftree-loop-vectorize -ftree-parallelize-loops=
# -ftree-partial-pre -ftree-phiprop -ftree-pre -ftree-pta -ftree-reassoc
# -ftree-scev-cprop -ftree-sink -ftree-slp-vectorize -ftree-slsr -ftree-sra
# -ftree-switch-conversion -ftree-tail-merge -ftree-ter -ftree-vrp
# -funit-at-a-time -funswitch-loops -funwind-tables -fvar-tracking
# -fvar-tracking-assignments -fverbose-asm -fversion-loops-for-strides
# -fzero-initialized-in-bss -m128bit-long-double -m64 -m80387
# -malign-stringops -mavx -mavx2 -mavx256-split-unaligned-load
# -mavx256-split-unaligned-store -mfancy-math-387 -mfma -mfp-ret-in-387
# -mfxsr -mglibc -mieee-fp -mlong-double-80 -mmmx -mpopcnt -mpush-args
# -mred-zone -msse -msse2 -msse3 -msse4 -msse4.1 -msse4.2 -mssse3 -mstv
# -mtls-direct-seg-refs -mvzeroupper -mxsave

	.text
.Ltext0:
	.section	.text.unlikely,"ax",@progbits
.LCOLDB1:
	.section	.text.startup,"ax",@progbits
.LHOTB1:
	.p2align 4
	.section	.text.unlikely
.Ltext_cold0:
	.section	.text.startup
	.globl	main
	.type	main, @function
main:
.LVL0:
.LFB35:
	.file 1 "main.cpp"
	.loc 1 113 34 view -0
	.cfi_startproc
	.loc 1 113 34 is_stmt 0 view .LVU1
	endbr64	
	.loc 1 115 5 is_stmt 1 view .LVU2
.LVL1:
.LBB88:
.LBI88:
	.file 2 "/usr/include/stdlib.h"
	.loc 2 361 1 view .LVU3
.LBB89:
	.loc 2 363 3 view .LVU4
.LBE89:
.LBE88:
# main.cpp:113: int main(int argc, char ** argv) {
	.loc 1 113 34 is_stmt 0 view .LVU5
	pushq	%rbp	#
	.cfi_def_cfa_offset 16
	.cfi_offset 6, -16
.LVL2:
.LBB93:
.LBB90:
# /usr/include/stdlib.h:363:   return (int) strtol (__nptr, (char **) NULL, 10);
	.loc 2 363 23 view .LVU6
	movl	$10, %edx	#,
.LBE90:
.LBE93:
# main.cpp:113: int main(int argc, char ** argv) {
	.loc 1 113 34 view .LVU7
	movq	%rsp, %rbp	#,
	.cfi_def_cfa_register 6
	pushq	%r15	#
	pushq	%r14	#
	pushq	%r13	#
	pushq	%r12	#
	.cfi_offset 15, -24
	.cfi_offset 14, -32
	.cfi_offset 13, -40
	.cfi_offset 12, -48
	movq	%rsi, %r12	# tmp445, argv
	pushq	%rbx	#
	andq	$-32, %rsp	#,
	subq	$192, %rsp	#,
	.cfi_offset 3, -56
# main.cpp:113: int main(int argc, char ** argv) {
	.loc 1 113 34 view .LVU8
	movl	%edi, 12(%rsp)	# tmp444, %sfp
.LBB94:
.LBB91:
# /usr/include/stdlib.h:363:   return (int) strtol (__nptr, (char **) NULL, 10);
	.loc 2 363 23 view .LVU9
	movq	8(%rsi), %rdi	# MEM[(char * *)argv_55(D) + 8B], MEM[(char * *)argv_55(D) + 8B]
.LVL3:
	.loc 2 363 23 view .LVU10
	xorl	%esi, %esi	#
.LVL4:
	.loc 2 363 23 view .LVU11
	call	strtol@PLT	#
.LVL5:
.LBE91:
.LBE94:
.LBB95:
.LBB96:
	movq	16(%r12), %rdi	# MEM[(char * *)argv_55(D) + 16B], MEM[(char * *)argv_55(D) + 16B]
	movl	$10, %edx	#,
	xorl	%esi, %esi	#
.LBE96:
.LBE95:
.LBB99:
.LBB92:
	movq	%rax, %r13	# tmp446, _121
.LVL6:
	.loc 2 363 23 view .LVU12
.LBE92:
.LBE99:
	.loc 1 116 5 is_stmt 1 view .LVU13
.LBB100:
.LBI95:
	.loc 2 361 1 view .LVU14
.LBB97:
	.loc 2 363 3 view .LVU15
# /usr/include/stdlib.h:363:   return (int) strtol (__nptr, (char **) NULL, 10);
	.loc 2 363 23 is_stmt 0 view .LVU16
	call	strtol@PLT	#
.LVL7:
	.loc 2 363 23 view .LVU17
.LBE97:
.LBE100:
# main.cpp:115:     int64_t in_size = atoi(argv[1]);
	.loc 1 115 13 view .LVU18
	movslq	%r13d, %rbx	# _121, in_size.3_67
.LVL8:
# main.cpp:117:     float scale = out_size / in_size;
	.loc 1 117 11 view .LVU19
	vxorps	%xmm2, %xmm2, %xmm2	# tmp462
# main.cpp:116:     int64_t out_size = atoi(argv[2]);
	.loc 1 116 13 view .LVU20
	movslq	%eax, %rdi	# _119, out_size
.LBB101:
.LBB98:
# /usr/include/stdlib.h:363:   return (int) strtol (__nptr, (char **) NULL, 10);
	.loc 2 363 23 view .LVU21
	movq	%rax, %r14	# tmp447, _119
.LVL9:
	.loc 2 363 23 view .LVU22
.LBE98:
.LBE101:
	.loc 1 117 5 is_stmt 1 view .LVU23
# main.cpp:117:     float scale = out_size / in_size;
	.loc 1 117 28 is_stmt 0 view .LVU24
	movq	%rdi, %rax	# out_size, tmp356
	cqto
	idivq	%rbx	# in_size.3_67
# main.cpp:117:     float scale = out_size / in_size;
	.loc 1 117 11 view .LVU25
	vcvtsi2ssq	%rax, %xmm2, %xmm0	# tmp356, tmp462, tmp463
# main.cpp:119:     float * output = new float[out_size];
	.loc 1 119 40 view .LVU26
	movabsq	$2305843009213693950, %rax	#, tmp358
# main.cpp:117:     float scale = out_size / in_size;
	.loc 1 117 11 view .LVU27
	vmovss	%xmm0, 128(%rsp)	# tmp463, %sfp
.LVL10:
	.loc 1 119 5 is_stmt 1 view .LVU28
# main.cpp:119:     float * output = new float[out_size];
	.loc 1 119 40 is_stmt 0 view .LVU29
	cmpq	%rax, %rdi	# tmp358, out_size
	ja	.L2	#,
# main.cpp:119:     float * output = new float[out_size];
	.loc 1 119 40 discriminator 1 view .LVU30
	salq	$2, %rdi	#, tmp359
.LVL11:
	.loc 1 119 40 discriminator 1 view .LVU31
	call	_Znam@PLT	#
.LVL12:
	.loc 1 119 40 discriminator 1 view .LVU32
	movq	%rax, 64(%rsp)	# tmp448, %sfp
.LVL13:
	.loc 1 120 5 is_stmt 1 discriminator 1 view .LVU33
.LBB102:
	.loc 1 120 20 discriminator 1 view .LVU34
	testl	%r14d, %r14d	# _119
	jle	.L5	#,
	movq	%rax, %rdi	# tmp448,
# main.cpp:121:         output[i] = 0.0;
	.loc 1 121 19 is_stmt 0 view .LVU35
	leal	-1(%r14), %eax	#, tmp363
.LVL14:
	.loc 1 121 19 view .LVU36
	xorl	%esi, %esi	#
	leaq	4(,%rax,4), %rdx	#, tmp365
	call	memset@PLT	#
.LVL15:
.L5:
	.loc 1 121 19 view .LVU37
.LBE102:
	.loc 1 124 5 is_stmt 1 view .LVU38
# main.cpp:124:     float * input = new float[in_size];
	.loc 1 124 38 is_stmt 0 view .LVU39
	movabsq	$2305843009213693950, %rax	#, tmp361
	cmpq	%rax, %rbx	# tmp361, in_size.3_67
	ja	.L2	#,
# main.cpp:124:     float * input = new float[in_size];
	.loc 1 124 38 discriminator 1 view .LVU40
	leaq	0(,%rbx,4), %r14	#, iftmp.2_69
	movq	%r14, %rdi	# iftmp.2_69,
	call	_Znam@PLT	#
.LVL16:
# main.cpp:125:     int32_t * ix0 = new int32_t[in_size];
	.loc 1 125 40 discriminator 1 view .LVU41
	movq	%r14, %rdi	# iftmp.2_69,
# main.cpp:124:     float * input = new float[in_size];
	.loc 1 124 38 discriminator 1 view .LVU42
	movq	%rax, %rbx	# tmp449, _71
.LVL17:
	.loc 1 125 5 is_stmt 1 discriminator 1 view .LVU43
# main.cpp:125:     int32_t * ix0 = new int32_t[in_size];
	.loc 1 125 40 is_stmt 0 discriminator 1 view .LVU44
	call	_Znam@PLT	#
.LVL18:
# main.cpp:126:     int32_t * ix1 = new int32_t[in_size];
	.loc 1 126 40 discriminator 1 view .LVU45
	movq	%r14, %rdi	# iftmp.2_69,
# main.cpp:125:     int32_t * ix0 = new int32_t[in_size];
	.loc 1 125 40 discriminator 1 view .LVU46
	movq	%rax, 184(%rsp)	# tmp450, %sfp
.LVL19:
	.loc 1 126 5 is_stmt 1 discriminator 1 view .LVU47
# main.cpp:126:     int32_t * ix1 = new int32_t[in_size];
	.loc 1 126 40 is_stmt 0 discriminator 1 view .LVU48
	call	_Znam@PLT	#
.LVL20:
# main.cpp:127:     int32_t * iy0 = new int32_t[in_size];
	.loc 1 127 40 discriminator 1 view .LVU49
	movq	%r14, %rdi	# iftmp.2_69,
# main.cpp:126:     int32_t * ix1 = new int32_t[in_size];
	.loc 1 126 40 discriminator 1 view .LVU50
	movq	%rax, %r15	# tmp451, _75
.LVL21:
	.loc 1 127 5 is_stmt 1 discriminator 1 view .LVU51
# main.cpp:127:     int32_t * iy0 = new int32_t[in_size];
	.loc 1 127 40 is_stmt 0 discriminator 1 view .LVU52
	call	_Znam@PLT	#
.LVL22:
# main.cpp:128:     int32_t * iy1 = new int32_t[in_size];
	.loc 1 128 40 discriminator 1 view .LVU53
	movq	%r14, %rdi	# iftmp.2_69,
# main.cpp:127:     int32_t * iy0 = new int32_t[in_size];
	.loc 1 127 40 discriminator 1 view .LVU54
	movq	%rax, 56(%rsp)	# tmp452, %sfp
.LVL23:
	.loc 1 128 5 is_stmt 1 discriminator 1 view .LVU55
# main.cpp:128:     int32_t * iy1 = new int32_t[in_size];
	.loc 1 128 40 is_stmt 0 discriminator 1 view .LVU56
	call	_Znam@PLT	#
.LVL24:
# main.cpp:130:     float * wx0 = new float[in_size];
	.loc 1 130 36 discriminator 1 view .LVU57
	movq	%r14, %rdi	# iftmp.2_69,
# main.cpp:128:     int32_t * iy1 = new int32_t[in_size];
	.loc 1 128 40 discriminator 1 view .LVU58
	movq	%rax, 48(%rsp)	# tmp453, %sfp
.LVL25:
	.loc 1 130 5 is_stmt 1 discriminator 1 view .LVU59
# main.cpp:130:     float * wx0 = new float[in_size];
	.loc 1 130 36 is_stmt 0 discriminator 1 view .LVU60
	call	_Znam@PLT	#
.LVL26:
# main.cpp:131:     float * wx1 = new float[in_size];
	.loc 1 131 36 discriminator 1 view .LVU61
	movq	%r14, %rdi	# iftmp.2_69,
# main.cpp:130:     float * wx0 = new float[in_size];
	.loc 1 130 36 discriminator 1 view .LVU62
	movq	%rax, 40(%rsp)	# tmp454, %sfp
.LVL27:
	.loc 1 131 5 is_stmt 1 discriminator 1 view .LVU63
# main.cpp:131:     float * wx1 = new float[in_size];
	.loc 1 131 36 is_stmt 0 discriminator 1 view .LVU64
	call	_Znam@PLT	#
.LVL28:
# main.cpp:132:     float * wy0 = new float[in_size];
	.loc 1 132 36 discriminator 1 view .LVU65
	movq	%r14, %rdi	# iftmp.2_69,
# main.cpp:131:     float * wx1 = new float[in_size];
	.loc 1 131 36 discriminator 1 view .LVU66
	movq	%rax, 32(%rsp)	# tmp455, %sfp
.LVL29:
	.loc 1 132 5 is_stmt 1 discriminator 1 view .LVU67
# main.cpp:132:     float * wy0 = new float[in_size];
	.loc 1 132 36 is_stmt 0 discriminator 1 view .LVU68
	call	_Znam@PLT	#
.LVL30:
# main.cpp:133:     float * wy1 = new float[in_size];
	.loc 1 133 36 discriminator 1 view .LVU69
	movq	%r14, %rdi	# iftmp.2_69,
# main.cpp:132:     float * wy0 = new float[in_size];
	.loc 1 132 36 discriminator 1 view .LVU70
	movq	%rax, 24(%rsp)	# tmp456, %sfp
.LVL31:
	.loc 1 133 5 is_stmt 1 discriminator 1 view .LVU71
# main.cpp:133:     float * wy1 = new float[in_size];
	.loc 1 133 36 is_stmt 0 discriminator 1 view .LVU72
	call	_Znam@PLT	#
.LVL32:
.LBB103:
# main.cpp:135:     for (int i=0; i<in_size; i++) {
	.loc 1 135 20 discriminator 1 view .LVU73
	testl	%r13d, %r13d	# _121
	vxorps	%xmm2, %xmm2, %xmm2	# tmp462
.LBE103:
# main.cpp:133:     float * wy1 = new float[in_size];
	.loc 1 133 36 discriminator 1 view .LVU74
	movq	%rax, 16(%rsp)	# tmp457, %sfp
.LVL33:
	.loc 1 135 5 is_stmt 1 discriminator 1 view .LVU75
.LBB106:
	.loc 1 135 20 discriminator 1 view .LVU76
	jle	.L10	#,
	movq	%rax, %r10	# tmp457, _87
	leal	-1(%r13), %ecx	#, _417
	movq	%r12, %r11	# argv, argv
	movq	48(%rsp), %rax	# %sfp, _79
	vmovss	.LC0(%rip), %xmm3	#, tmp442
	movq	40(%rsp), %rdx	# %sfp, _81
# main.cpp:135:     for (int i=0; i<in_size; i++) {
	.loc 1 135 20 is_stmt 0 view .LVU77
	xorl	%r13d, %r13d	# ivtmp.97
.LVL34:
	.loc 1 135 20 view .LVU78
	movq	32(%rsp), %r8	# %sfp, _83
	movq	24(%rsp), %r9	# %sfp, _85
	movq	56(%rsp), %r12	# %sfp, _77
.LVL35:
	.loc 1 135 20 view .LVU79
	jmp	.L11	#
.LVL36:
	.p2align 4,,10
	.p2align 3
.L25:
# main.cpp:136:         input[i] = i + (i > 0) ? input[i - 1] : atof(argv[3]);
	.loc 1 136 32 discriminator 1 view .LVU80
	vmovss	-4(%rbx,%r13,4), %xmm0	# MEM[base: _71, index: ivtmp.97_104, step: 4, offset: -4B], iftmp.20_51
.L9:
# main.cpp:136:         input[i] = i + (i > 0) ? input[i - 1] : atof(argv[3]);
	.loc 1 136 18 discriminator 4 view .LVU81
	vmovss	%xmm0, (%rbx,%r13,4)	# iftmp.20_51, MEM[base: _71, index: ivtmp.97_104, step: 4, offset: 0B]
	.loc 1 137 9 is_stmt 1 discriminator 4 view .LVU82
# main.cpp:137:         ix0[i] = int32_t(i * scale);
	.loc 1 137 28 is_stmt 0 discriminator 4 view .LVU83
	vcvtsi2ssl	%r14d, %xmm2, %xmm0	# i, tmp462, tmp464
	vmulss	128(%rsp), %xmm0, %xmm1	# %sfp, tmp392, _19
# main.cpp:137:         ix0[i] = int32_t(i * scale);
	.loc 1 137 16 discriminator 4 view .LVU84
	movq	184(%rsp), %rdi	# %sfp, _73
# main.cpp:137:         ix0[i] = int32_t(i * scale);
	.loc 1 137 18 discriminator 4 view .LVU85
	vcvttss2sil	%xmm1, %esi	# _19, _21
# main.cpp:139:         wx0[i] = i * scale - ix0[i];
	.loc 1 139 28 discriminator 4 view .LVU86
	vcvtsi2ssl	%esi, %xmm2, %xmm0	# _21, tmp462, tmp465
# main.cpp:137:         ix0[i] = int32_t(i * scale);
	.loc 1 137 16 discriminator 4 view .LVU87
	movl	%esi, (%rdi,%r13,4)	# _21, MEM[base: _73, index: ivtmp.97_104, step: 4, offset: 0B]
	.loc 1 138 9 is_stmt 1 discriminator 4 view .LVU88
# main.cpp:138:         ix1[i] = ix0[i] + 1;
	.loc 1 138 25 is_stmt 0 discriminator 4 view .LVU89
	leal	1(%rsi), %edi	#, _23
# main.cpp:142:         iy0[i] = int32_t(i * scale);
	.loc 1 142 16 discriminator 4 view .LVU90
	movl	%esi, (%r12,%r13,4)	# _21, MEM[base: _77, index: ivtmp.97_104, step: 4, offset: 0B]
	leaq	1(%r13), %rsi	#, ivtmp.97
# main.cpp:138:         ix1[i] = ix0[i] + 1;
	.loc 1 138 16 discriminator 4 view .LVU91
	movl	%edi, (%r15,%r13,4)	# _23, MEM[base: _75, index: ivtmp.97_104, step: 4, offset: 0B]
	.loc 1 139 9 is_stmt 1 discriminator 4 view .LVU92
# main.cpp:143:         iy1[i] = iy0[i] + 1;
	.loc 1 143 16 is_stmt 0 discriminator 4 view .LVU93
	movl	%edi, (%rax,%r13,4)	# _23, MEM[base: _79, index: ivtmp.97_104, step: 4, offset: 0B]
# main.cpp:139:         wx0[i] = i * scale - ix0[i];
	.loc 1 139 28 discriminator 4 view .LVU94
	vsubss	%xmm0, %xmm1, %xmm0	# tmp393, _19, _26
# main.cpp:140:         wx1[i] = 1.0 - wx0[i];
	.loc 1 140 16 discriminator 4 view .LVU95
	vsubss	%xmm0, %xmm3, %xmm1	# _26, tmp442, _28
# main.cpp:139:         wx0[i] = i * scale - ix0[i];
	.loc 1 139 16 discriminator 4 view .LVU96
	vmovss	%xmm0, (%rdx,%r13,4)	# _26, MEM[base: _81, index: ivtmp.97_104, step: 4, offset: 0B]
	.loc 1 140 9 is_stmt 1 discriminator 4 view .LVU97
# main.cpp:144:         wy0[i] = i * scale - iy0[i];
	.loc 1 144 16 is_stmt 0 discriminator 4 view .LVU98
	vmovss	%xmm0, (%r9,%r13,4)	# _26, MEM[base: _85, index: ivtmp.97_104, step: 4, offset: 0B]
# main.cpp:140:         wx1[i] = 1.0 - wx0[i];
	.loc 1 140 16 discriminator 4 view .LVU99
	vmovss	%xmm1, (%r8,%r13,4)	# _28, MEM[base: _83, index: ivtmp.97_104, step: 4, offset: 0B]
	.loc 1 142 9 is_stmt 1 discriminator 4 view .LVU100
	.loc 1 143 9 discriminator 4 view .LVU101
	.loc 1 144 9 discriminator 4 view .LVU102
	.loc 1 145 9 discriminator 4 view .LVU103
# main.cpp:145:         wy1[i] = 1.0 - wy0[i];
	.loc 1 145 16 is_stmt 0 discriminator 4 view .LVU104
	vmovss	%xmm1, (%r10,%r13,4)	# _28, MEM[base: _87, index: ivtmp.97_104, step: 4, offset: 0B]
	.loc 1 135 5 is_stmt 1 discriminator 4 view .LVU105
.LVL37:
	.loc 1 135 20 discriminator 4 view .LVU106
	cmpq	%rcx, %r13	# _417, ivtmp.97
	je	.L20	#,
	.loc 1 135 20 is_stmt 0 discriminator 4 view .LVU107
	movq	%rsi, %r13	# ivtmp.97, ivtmp.97
.LVL38:
.L11:
# main.cpp:136:         input[i] = i + (i > 0) ? input[i - 1] : atof(argv[3]);
	.loc 1 136 27 view .LVU108
	xorl	%esi, %esi	# tmp388
	testl	%r13d, %r13d	# ivtmp.97
	movl	%r13d, %r14d	# ivtmp.97, i
.LVL39:
	.loc 1 136 9 is_stmt 1 view .LVU109
# main.cpp:136:         input[i] = i + (i > 0) ? input[i - 1] : atof(argv[3]);
	.loc 1 136 27 is_stmt 0 view .LVU110
	setg	%sil	#, tmp388
# main.cpp:136:         input[i] = i + (i > 0) ? input[i - 1] : atof(argv[3]);
	.loc 1 136 32 view .LVU111
	addl	%r13d, %esi	# ivtmp.97, tmp388
	jne	.L25	#,
.LVL40:
.LBB104:
.LBI104:
	.file 3 "/usr/include/x86_64-linux-gnu/bits/stdlib-float.h"
	.loc 3 25 1 is_stmt 1 discriminator 2 view .LVU112
.LBB105:
	.loc 3 27 3 discriminator 2 view .LVU113
# /usr/include/x86_64-linux-gnu/bits/stdlib-float.h:27:   return strtod (__nptr, (char **) NULL);
	.loc 3 27 17 is_stmt 0 discriminator 2 view .LVU114
	movq	24(%r11), %rdi	# MEM[(char * *)argv_55(D) + 24B], MEM[(char * *)argv_55(D) + 24B]
	xorl	%esi, %esi	#
	movq	%rcx, 72(%rsp)	# _417, %sfp
	movq	%r10, 80(%rsp)	# _87, %sfp
	movq	%r9, 88(%rsp)	# _85, %sfp
	movq	%r8, 160(%rsp)	# _83, %sfp
	movq	%rdx, 168(%rsp)	# _81, %sfp
	movq	%rax, 176(%rsp)	# _79, %sfp
	movq	%r11, 96(%rsp)	# argv, %sfp
	call	strtod@PLT	#
.LVL41:
	.loc 3 27 17 discriminator 2 view .LVU115
.LBE105:
.LBE104:
# main.cpp:136:         input[i] = i + (i > 0) ? input[i - 1] : atof(argv[3]);
	.loc 1 136 32 discriminator 2 view .LVU116
	movq	72(%rsp), %rcx	# %sfp, _417
	movq	80(%rsp), %r10	# %sfp, _87
	vxorps	%xmm2, %xmm2, %xmm2	# tmp462
	movq	88(%rsp), %r9	# %sfp, _85
	movq	160(%rsp), %r8	# %sfp, _83
	vcvtsd2ss	%xmm0, %xmm0, %xmm0	# tmp460, iftmp.20_51
	movq	168(%rsp), %rdx	# %sfp, _81
	movq	176(%rsp), %rax	# %sfp, _79
	vmovss	.LC0(%rip), %xmm3	#, tmp442
	movq	96(%rsp), %r11	# %sfp, argv
	jmp	.L9	#
.LVL42:
	.p2align 4,,10
	.p2align 3
.L20:
	.loc 1 136 32 discriminator 2 view .LVU117
	movq	%r11, %r12	# argv, argv
.LVL43:
.L10:
	.loc 1 136 32 discriminator 2 view .LVU118
	vmovq	64(%rsp), %xmm7	# %sfp, _64
	vmovq	56(%rsp), %xmm5	# %sfp, _77
.LBE106:
# main.cpp:148:     char ** data = new char*[10];
	.loc 1 148 32 view .LVU119
	movl	$80, %edi	#,
	vpinsrq	$1, 24(%rsp), %xmm5, %xmm0	# %sfp, _77, tmp380
	vmovq	48(%rsp), %xmm4	# %sfp, _79
	vpinsrq	$1, %rbx, %xmm7, %xmm1	# _71, _64, tmp381
	vmovq	184(%rsp), %xmm7	# %sfp, _73
	vpinsrq	$1, 40(%rsp), %xmm7, %xmm2	# %sfp, _73, tmp383
	vinserti128	$0x1, %xmm0, %ymm1, %ymm1	# tmp380, tmp381, tmp379
	vpinsrq	$1, 16(%rsp), %xmm4, %xmm0	# %sfp, _79, tmp384
	vmovdqa	%ymm1, 96(%rsp)	# tmp379, %sfp
	vinserti128	$0x1, %xmm2, %ymm0, %ymm0	# tmp383, tmp384, tmp382
	vmovdqa	%ymm0, 128(%rsp)	# tmp382, %sfp
.LVL44:
	.loc 1 148 5 is_stmt 1 view .LVU120
# main.cpp:148:     char ** data = new char*[10];
	.loc 1 148 32 is_stmt 0 view .LVU121
	vzeroupper
	call	_Znam@PLT	#
.LVL45:
	.loc 1 149 5 is_stmt 1 view .LVU122
	.loc 1 150 5 view .LVU123
	.loc 1 151 5 view .LVU124
	.loc 1 152 5 view .LVU125
	.loc 1 153 5 view .LVU126
	.loc 1 154 5 view .LVU127
	.loc 1 155 5 view .LVU128
	.loc 1 156 5 view .LVU129
# main.cpp:149:     data[0] = (char *) output;
	.loc 1 149 13 is_stmt 0 view .LVU130
	vmovdqa	96(%rsp), %ymm1	# %sfp, tmp379
# main.cpp:158:     data[9] = (char *) wx1;
	.loc 1 158 13 view .LVU131
	movq	32(%rsp), %rcx	# %sfp, _83
# main.cpp:160:     int64_t * strides = new int64_t[10];
	.loc 1 160 39 view .LVU132
	movl	$80, %edi	#,
# main.cpp:149:     data[0] = (char *) output;
	.loc 1 149 13 view .LVU133
	vmovdqa	128(%rsp), %ymm0	# %sfp, tmp382
# main.cpp:157:     data[8] = (char *) ix1;
	.loc 1 157 13 view .LVU134
	movq	%r15, 64(%rax)	# _75, MEM[(char * *)_101 + 64B]
# main.cpp:158:     data[9] = (char *) wx1;
	.loc 1 158 13 view .LVU135
	movq	%rcx, 72(%rax)	# _83, MEM[(char * *)_101 + 72B]
# main.cpp:149:     data[0] = (char *) output;
	.loc 1 149 13 view .LVU136
	vextracti128	$0x1, %ymm1, 16(%rax)	# tmp379, MEM[(char * *)_101]
	vmovups	%xmm1, (%rax)	# tmp379, MEM[(char * *)_101]
	vextracti128	$0x1, %ymm0, 48(%rax)	# tmp382, MEM[(char * *)_101 + 32B]
	.loc 1 157 5 is_stmt 1 view .LVU137
	.loc 1 158 5 view .LVU138
	.loc 1 160 5 view .LVU139
# main.cpp:149:     data[0] = (char *) output;
	.loc 1 149 13 is_stmt 0 view .LVU140
	vmovups	%xmm0, 32(%rax)	# tmp382, MEM[(char * *)_101 + 32B]
# main.cpp:160:     int64_t * strides = new int64_t[10];
	.loc 1 160 39 view .LVU141
	vzeroupper
	xorl	%r14d, %r14d	# ivtmp.95
	call	_Znam@PLT	#
.LVL46:
	.loc 1 160 39 view .LVU142
	movq	%rax, %r13	# tmp459, _113
.LVL47:
	.loc 1 161 5 is_stmt 1 view .LVU143
.LBB107:
	.loc 1 161 20 view .LVU144
	.p2align 4,,10
	.p2align 3
.L7:
	.loc 1 162 9 discriminator 2 view .LVU145
.LBB108:
.LBI108:
	.loc 2 361 1 discriminator 2 view .LVU146
.LBB109:
	.loc 2 363 3 discriminator 2 view .LVU147
# /usr/include/stdlib.h:363:   return (int) strtol (__nptr, (char **) NULL, 10);
	.loc 2 363 23 is_stmt 0 discriminator 2 view .LVU148
	movq	32(%r12,%r14), %rdi	# MEM[base: argv_55(D), index: ivtmp.95_106, offset: 32B], MEM[base: argv_55(D), index: ivtmp.95_106, offset: 32B]
	movl	$10, %edx	#,
	xorl	%esi, %esi	#
	call	strtol@PLT	#
.LVL48:
	.loc 2 363 23 discriminator 2 view .LVU149
.LBE109:
.LBE108:
# main.cpp:162:         strides[i] = atoi(argv[4 + i]);
	.loc 1 162 26 discriminator 2 view .LVU150
	cltq
	movq	%rax, 0(%r13,%r14)	# _124, MEM[base: _113, index: ivtmp.95_106, offset: 0B]
	.loc 1 161 5 is_stmt 1 discriminator 2 view .LVU151
	.loc 1 161 20 discriminator 2 view .LVU152
	addq	$8, %r14	#, ivtmp.95
	cmpq	$80, %r14	#, ivtmp.95
	jne	.L7	#,
.LBE107:
	.loc 1 164 5 view .LVU153
.LBB110:
.LBB111:
# main.cpp:94:     if ((strides[0] == sizeof(scalar_t) && strides[1] == sizeof(scalar_t) &&
	.loc 1 94 41 is_stmt 0 view .LVU154
	cmpq	$4, 8(%r13)	#, MEM[(int64_t *)_113 + 8B]
.LBE111:
.LBE110:
# main.cpp:164:     strides[0] = sizeof(float);
	.loc 1 164 16 view .LVU155
	movq	$4, 0(%r13)	#, *_113
	.loc 1 178 5 is_stmt 1 view .LVU156
.LVL49:
	.loc 1 181 5 view .LVU157
.LBB242:
.LBI110:
	.loc 1 85 6 view .LVU158
.LBB238:
# main.cpp:94:     if ((strides[0] == sizeof(scalar_t) && strides[1] == sizeof(scalar_t) &&
	.loc 1 94 41 is_stmt 0 view .LVU159
	je	.L12	#,
.L13:
.LVL50:
	.loc 1 94 41 view .LVU160
.LBE238:
.LBE242:
	.loc 1 183 5 is_stmt 1 view .LVU161
# main.cpp:183:     return int(data[0][0] + data[0][1]);
	.loc 1 183 25 is_stmt 0 view .LVU162
	movq	64(%rsp), %rcx	# %sfp, _64
	movsbl	(%rcx), %eax	# MEM[(char *)_64], MEM[(char *)_64]
# main.cpp:183:     return int(data[0][0] + data[0][1]);
	.loc 1 183 38 view .LVU163
	movsbl	1(%rcx), %edx	# MEM[(char *)_64 + 1B], MEM[(char *)_64 + 1B]
# main.cpp:184: }
	.loc 1 184 1 view .LVU164
	leaq	-40(%rbp), %rsp	#,
.LVL51:
	.loc 1 184 1 view .LVU165
	popq	%rbx	#
.LVL52:
	.loc 1 184 1 view .LVU166
	popq	%r12	#
# main.cpp:183:     return int(data[0][0] + data[0][1]);
	.loc 1 183 39 view .LVU167
	addl	%edx, %eax	# MEM[(char *)_64 + 1B], tmp397
# main.cpp:184: }
	.loc 1 184 1 view .LVU168
	popq	%r13	#
	popq	%r14	#
	popq	%r15	#
	popq	%rbp	#
	.cfi_remember_state
	.cfi_def_cfa 7, 8
.LVL53:
	.loc 1 184 1 view .LVU169
	ret	
.LVL54:
.L12:
	.cfi_restore_state
.LBB243:
.LBB239:
.LBB112:
.LBI112:
	.loc 1 85 6 is_stmt 1 view .LVU170
.LBB113:
.LBI113:
	.loc 1 80 20 view .LVU171
.LBB114:
.LBI114:
	.loc 1 66 22 view .LVU172
.LBB115:
.LBI115:
	.loc 1 53 20 view .LVU173
.LBB116:
	.loc 1 54 3 view .LVU174
# main.cpp:54:   return (strides[0] == 0) && (strides[1] == 0) && (strides[2] == 0) && (strides[3] == 0);
	.loc 1 54 70 is_stmt 0 view .LVU175
	cmpq	$0, 16(%r13)	#, MEM[(const int64_t *)_113 + 16B]
	jne	.L13	#,
# main.cpp:54:   return (strides[0] == 0) && (strides[1] == 0) && (strides[2] == 0) && (strides[3] == 0);
	.loc 1 54 28 view .LVU176
	cmpq	$0, 24(%r13)	#, MEM[(const int64_t *)_113 + 24B]
	jne	.L13	#,
# main.cpp:54:   return (strides[0] == 0) && (strides[1] == 0) && (strides[2] == 0) && (strides[3] == 0);
	.loc 1 54 49 view .LVU177
	cmpq	$0, 32(%r13)	#, MEM[(const int64_t *)_113 + 32B]
	jne	.L13	#,
# main.cpp:54:   return (strides[0] == 0) && (strides[1] == 0) && (strides[2] == 0) && (strides[3] == 0);
	.loc 1 54 70 view .LVU178
	cmpq	$0, 40(%r13)	#, MEM[(const int64_t *)_113 + 40B]
	jne	.L13	#,
.LVL55:
	.loc 1 54 70 view .LVU179
.LBE116:
.LBE115:
.LBB117:
.LBI117:
	.loc 1 74 22 is_stmt 1 view .LVU180
.LBB118:
.LBI118:
	.loc 1 53 20 view .LVU181
.LBB119:
	.loc 1 54 3 view .LVU182
# main.cpp:54:   return (strides[0] == 0) && (strides[1] == 0) && (strides[2] == 0) && (strides[3] == 0);
	.loc 1 54 70 is_stmt 0 view .LVU183
	cmpq	$0, 48(%r13)	#, MEM[(const int64_t *)_113 + 48B]
	jne	.L13	#,
.LVL56:
	.loc 1 54 70 view .LVU184
.LBE119:
.LBE118:
.LBE117:
.LBB120:
.LBI120:
	.loc 1 66 22 is_stmt 1 view .LVU185
.LBB121:
.LBB122:
.LBB123:
# main.cpp:54:   return (strides[0] == 0) && (strides[1] == 0) && (strides[2] == 0) && (strides[3] == 0);
	.loc 1 54 28 is_stmt 0 view .LVU186
	cmpq	$0, 56(%r13)	#, MEM[(const int64_t *)_113 + 56B]
	jne	.L13	#,
# main.cpp:54:   return (strides[0] == 0) && (strides[1] == 0) && (strides[2] == 0) && (strides[3] == 0);
	.loc 1 54 49 view .LVU187
	cmpq	$0, 64(%r13)	#, MEM[(const int64_t *)_113 + 64B]
	jne	.L13	#,
# main.cpp:54:   return (strides[0] == 0) && (strides[1] == 0) && (strides[2] == 0) && (strides[3] == 0);
	.loc 1 54 83 view .LVU188
	movq	72(%r13), %rax	# MEM[(const int64_t *)_113 + 72B], tmp.45
# main.cpp:54:   return (strides[0] == 0) && (strides[1] == 0) && (strides[2] == 0) && (strides[3] == 0);
	.loc 1 54 70 view .LVU189
	testq	%rax, %rax	# tmp.45
	jne	.L13	#,
.LBE123:
.LBE122:
.LBE121:
.LBE120:
.LBE114:
.LBE113:
.LBE112:
.LBE239:
.LBE243:
# main.cpp:181:     ti_cpu_upsample_linear<float, int32_t, 2>(data, strides, n);
	.loc 1 181 46 view .LVU190
	movslq	12(%rsp), %rsi	# %sfp, _42
.LVL57:
.LBB244:
.LBB240:
.LBB236:
.LBB124:
.LBB125:
.LBB126:
	.loc 1 47 25 is_stmt 1 view .LVU191
	testq	%rsi, %rsi	# _42
	jle	.L13	#,
.LBB127:
.LBB128:
.LBB129:
# main.cpp:17:         scalar_t t1 = InterpLinear<n - 1, scalar_t, index_t>::eval(src + i1, &data[4], &strides[4], i);
	.loc 1 17 74 is_stmt 0 view .LVU192
	movq	48(%rsp), %r11	# %sfp, _79
# main.cpp:16:         scalar_t t0 = InterpLinear<n - 1, scalar_t, index_t>::eval(src + i0, &data[4], &strides[4], i);
	.loc 1 16 74 view .LVU193
	movq	56(%rsp), %rcx	# %sfp, _77
	leaq	-1(%rsi), %r9	#, tmp404
# main.cpp:17:         scalar_t t1 = InterpLinear<n - 1, scalar_t, index_t>::eval(src + i1, &data[4], &strides[4], i);
	.loc 1 17 74 view .LVU194
	movslq	(%r11), %r8	# MEM[(int *)_79], _191
	movq	24(%rsp), %r11	# %sfp, _85
# main.cpp:16:         scalar_t t0 = InterpLinear<n - 1, scalar_t, index_t>::eval(src + i0, &data[4], &strides[4], i);
	.loc 1 16 74 view .LVU195
	movslq	(%rcx), %rdi	# MEM[(int *)_77], _188
.LBB130:
.LBB131:
# main.cpp:30:         scalar_t t0 = *(scalar_t *)&src[i0];
	.loc 1 30 41 view .LVU196
	movq	184(%rsp), %rcx	# %sfp, _73
	vmovss	(%r11), %xmm6	# *_85, pretmp_288
	movq	16(%rsp), %r11	# %sfp, _87
	movslq	(%rcx), %rdx	# MEM[(int *)_73], _254
# main.cpp:31:         scalar_t t1 = *(scalar_t *)&src[i1];
	.loc 1 31 41 view .LVU197
	movslq	(%r15), %rcx	# MEM[(int *)_75], _257
	vmovss	(%r11), %xmm9	# *_87, pretmp_290
	movq	40(%rsp), %r11	# %sfp, _81
	vmovss	(%r11), %xmm2	# *_81, pretmp_292
	movq	32(%rsp), %r11	# %sfp, _83
	vmovss	(%r11), %xmm5	# *_83, pretmp_294
	cmpq	$6, %r9	#, tmp404
	jbe	.L14	#,
	movq	%rsi, %r9	# _42, bnd.43
	leaq	(%rdi,%rdx), %r13	#, tmp405
	leaq	(%rdi,%rcx), %r12	#, tmp406
.LBE131:
.LBE130:
# main.cpp:17:         scalar_t t1 = InterpLinear<n - 1, scalar_t, index_t>::eval(src + i1, &data[4], &strides[4], i);
	.loc 1 17 74 view .LVU198
	movq	64(%rsp), %r14	# %sfp, _64
	leaq	(%r8,%rdx), %r11	#, tmp409
	leaq	(%r8,%rcx), %r10	#, tmp410
	shrq	$3, %r9	#, bnd.43
	addq	%rbx, %r13	# _71, vectp.47
	addq	%rbx, %r12	# _71, vectp.50
	vbroadcastss	%xmm2, %ymm4	# pretmp_292, vect_cst__234
	vbroadcastss	%xmm5, %ymm3	# pretmp_294, vect_cst__232
	addq	%rbx, %r11	# _71, vectp.56
	addq	%rbx, %r10	# _71, vectp.59
	vbroadcastss	%xmm6, %ymm8	# pretmp_288, vect_cst__169
	vbroadcastss	%xmm9, %ymm7	# pretmp_290, vect_cst__166
	salq	$5, %r9	#, _107
.LVL58:
.L16:
	.loc 1 17 74 view .LVU199
.LBE129:
.LBE128:
.LBI127:
	.loc 1 37 24 is_stmt 1 view .LVU200
.LBB216:
.LBI128:
	.loc 1 10 28 view .LVU201
.LBB207:
.LBB147:
.LBI130:
	.loc 1 25 28 view .LVU202
	.loc 1 25 28 is_stmt 0 view .LVU203
.LBE147:
.LBB148:
.LBB149:
# main.cpp:32:         return t0 * w0 + t1 * w1;
	.loc 1 32 29 view .LVU204
	vmulps	(%r10,%rax), %ymm3, %ymm1	# MEM[base: vectp.59_190, index: ivtmp.75_109, offset: 0B], vect_cst__232, vect__228.62
.LBE149:
.LBE148:
.LBB164:
.LBB132:
	vmulps	(%r12,%rax), %ymm3, %ymm0	# MEM[base: vectp.50_243, index: ivtmp.75_109, offset: 0B], vect_cst__232, vect__261.53
.LBE132:
.LBE164:
.LBB165:
.LBB150:
# main.cpp:32:         return t0 * w0 + t1 * w1;
	.loc 1 32 31 view .LVU205
	vfmadd231ps	(%r11,%rax), %ymm4, %ymm1	# MEM[base: vectp.56_214, index: ivtmp.75_109, offset: 0B], vect_cst__234, vect__229.63
.LBE150:
.LBE165:
.LBB166:
.LBB133:
	vfmadd231ps	0(%r13,%rax), %ymm4, %ymm0	# MEM[base: vectp.47_252, index: ivtmp.75_109, offset: 0B], vect_cst__234, vect__262.54
.LVL59:
	.loc 1 32 31 view .LVU206
.LBE133:
.LBE166:
.LBB167:
.LBI148:
	.loc 1 25 28 is_stmt 1 view .LVU207
	.loc 1 25 28 is_stmt 0 view .LVU208
.LBE167:
# main.cpp:19:         return t0 * w0 + t1 * w1;
	.loc 1 19 29 view .LVU209
	vmulps	%ymm1, %ymm7, %ymm1	# vect__229.63, vect_cst__166, vect__195.65
# main.cpp:19:         return t0 * w0 + t1 * w1;
	.loc 1 19 31 view .LVU210
	vfmadd132ps	%ymm8, %ymm1, %ymm0	# vect_cst__169, vect__195.65, vect__196.66
	.loc 1 19 31 view .LVU211
.LBE207:
.LBE216:
.LBE127:
# main.cpp:48:     *(scalar_t*)&dst[i * strides[0]] = interp_linear<out_ndims, scalar_t, index_t>(
	.loc 1 48 5 view .LVU212
	vmovups	%ymm0, (%r14,%rax)	# vect__196.66, MEM[base: _64, index: ivtmp.75_109, offset: 0B]
	.loc 1 47 3 is_stmt 1 view .LVU213
	.loc 1 47 25 view .LVU214
	addq	$32, %rax	#, ivtmp.75
	cmpq	%rax, %r9	# ivtmp.75, _107
	jne	.L16	#,
	movq	%rsi, %rax	# _42, tmp.45
	andq	$-8, %rax	#, tmp.45
	testb	$7, %sil	#, _42
	je	.L21	#,
	vzeroupper
.L14:
.LVL60:
# main.cpp:49:         src + i * strides[1], &data[2], &strides[2], i);
	.loc 1 49 17 is_stmt 0 view .LVU215
	leaq	0(,%rax,4), %r10	#, _155
# main.cpp:48:     *(scalar_t*)&dst[i * strides[0]] = interp_linear<out_ndims, scalar_t, index_t>(
	.loc 1 48 5 view .LVU216
	movq	64(%rsp), %r15	# %sfp, _64
# main.cpp:48:     *(scalar_t*)&dst[i * strides[0]] = interp_linear<out_ndims, scalar_t, index_t>(
	.loc 1 48 83 view .LVU217
	leaq	(%rbx,%r10), %r9	#, _159
.LVL61:
.LBB225:
	.loc 1 37 24 is_stmt 1 view .LVU218
.LBB217:
	.loc 1 10 28 view .LVU219
.LBB208:
# main.cpp:16:         scalar_t t0 = InterpLinear<n - 1, scalar_t, index_t>::eval(src + i0, &data[4], &strides[4], i);
	.loc 1 16 67 is_stmt 0 view .LVU220
	leaq	(%r9,%rdi), %r11	#, _255
.LVL62:
.LBB168:
	.loc 1 25 28 is_stmt 1 view .LVU221
	.loc 1 25 28 is_stmt 0 view .LVU222
.LBE168:
# main.cpp:17:         scalar_t t1 = InterpLinear<n - 1, scalar_t, index_t>::eval(src + i1, &data[4], &strides[4], i);
	.loc 1 17 67 view .LVU223
	addq	%r8, %r9	# _191, _222
.LVL63:
.LBB169:
.LBB151:
# main.cpp:32:         return t0 * w0 + t1 * w1;
	.loc 1 32 29 view .LVU224
	vmulss	(%r9,%rcx), %xmm5, %xmm1	# MEM[(float *)_226], pretmp_294, tmp422
.LBE151:
.LBE169:
.LBB170:
.LBB134:
	vmulss	(%r11,%rcx), %xmm5, %xmm0	# MEM[(float *)_259], pretmp_294, tmp421
.LBE134:
.LBE170:
.LBB171:
.LBB152:
# main.cpp:32:         return t0 * w0 + t1 * w1;
	.loc 1 32 31 view .LVU225
	vfmadd231ss	(%r9,%rdx), %xmm2, %xmm1	# MEM[(float *)_223], pretmp_292, _194
.LBE152:
.LBE171:
.LBE208:
.LBE217:
.LBE225:
# main.cpp:47:   for (int64_t i = 0; i < n; i++) {
	.loc 1 47 3 view .LVU226
	leaq	1(%rax), %r9	#, i
.LBB226:
.LBB218:
.LBB209:
.LBB172:
.LBB135:
# main.cpp:32:         return t0 * w0 + t1 * w1;
	.loc 1 32 31 view .LVU227
	vfmadd231ss	(%r11,%rdx), %xmm2, %xmm0	# MEM[(float *)_256], pretmp_292, _192
.LVL64:
	.loc 1 32 31 view .LVU228
.LBE135:
.LBE172:
.LBB173:
	.loc 1 25 28 is_stmt 1 view .LVU229
	.loc 1 25 28 is_stmt 0 view .LVU230
.LBE173:
# main.cpp:19:         return t0 * w0 + t1 * w1;
	.loc 1 19 29 view .LVU231
	vmulss	%xmm9, %xmm1, %xmm1	# pretmp_290, _194, tmp423
.LVL65:
# main.cpp:19:         return t0 * w0 + t1 * w1;
	.loc 1 19 31 view .LVU232
	vfmadd132ss	%xmm6, %xmm1, %xmm0	# pretmp_288, tmp423, _161
.LVL66:
	.loc 1 19 31 view .LVU233
.LBE209:
.LBE218:
.LBE226:
# main.cpp:48:     *(scalar_t*)&dst[i * strides[0]] = interp_linear<out_ndims, scalar_t, index_t>(
	.loc 1 48 5 view .LVU234
	vmovss	%xmm0, (%r15,%r10)	# _161, MEM[(float *)_189]
	.loc 1 47 3 is_stmt 1 view .LVU235
.LVL67:
	.loc 1 47 25 view .LVU236
	cmpq	%r9, %rsi	# i, _42
	jle	.L13	#,
# main.cpp:49:         src + i * strides[1], &data[2], &strides[2], i);
	.loc 1 49 17 is_stmt 0 view .LVU237
	salq	$2, %r9	#, _149
.LVL68:
# main.cpp:48:     *(scalar_t*)&dst[i * strides[0]] = interp_linear<out_ndims, scalar_t, index_t>(
	.loc 1 48 83 view .LVU238
	leaq	(%rbx,%r9), %r10	#, _148
.LVL69:
.LBB227:
	.loc 1 37 24 is_stmt 1 view .LVU239
.LBB219:
	.loc 1 10 28 view .LVU240
.LBB210:
# main.cpp:16:         scalar_t t0 = InterpLinear<n - 1, scalar_t, index_t>::eval(src + i0, &data[4], &strides[4], i);
	.loc 1 16 67 is_stmt 0 view .LVU241
	leaq	(%r10,%rdi), %r11	#, _146
.LVL70:
.LBB174:
	.loc 1 25 28 is_stmt 1 view .LVU242
	.loc 1 25 28 is_stmt 0 view .LVU243
.LBE174:
# main.cpp:17:         scalar_t t1 = InterpLinear<n - 1, scalar_t, index_t>::eval(src + i1, &data[4], &strides[4], i);
	.loc 1 17 67 view .LVU244
	addq	%r8, %r10	# _191, _50
.LVL71:
.LBB175:
.LBB153:
# main.cpp:32:         return t0 * w0 + t1 * w1;
	.loc 1 32 29 view .LVU245
	vmulss	(%r10,%rcx), %xmm5, %xmm1	# MEM[(float *)_68], pretmp_294, tmp425
.LBE153:
.LBE175:
.LBB176:
.LBB136:
	vmulss	(%r11,%rcx), %xmm5, %xmm0	# MEM[(float *)_135], pretmp_294, tmp424
.LBE136:
.LBE176:
.LBB177:
.LBB154:
# main.cpp:32:         return t0 * w0 + t1 * w1;
	.loc 1 32 31 view .LVU246
	vfmadd231ss	(%r10,%rdx), %xmm2, %xmm1	# MEM[(float *)_49], pretmp_292, _283
.LBE154:
.LBE177:
.LBB178:
.LBB137:
	vfmadd231ss	(%r11,%rdx), %xmm2, %xmm0	# MEM[(float *)_142], pretmp_292, _52
.LVL72:
	.loc 1 32 31 view .LVU247
.LBE137:
.LBE178:
.LBB179:
	.loc 1 25 28 is_stmt 1 view .LVU248
	.loc 1 25 28 is_stmt 0 view .LVU249
.LBE179:
# main.cpp:19:         return t0 * w0 + t1 * w1;
	.loc 1 19 29 view .LVU250
	vmulss	%xmm9, %xmm1, %xmm1	# pretmp_290, _283, tmp426
.LVL73:
# main.cpp:19:         return t0 * w0 + t1 * w1;
	.loc 1 19 31 view .LVU251
	vfmadd132ss	%xmm6, %xmm1, %xmm0	# pretmp_288, tmp426, _280
.LVL74:
	.loc 1 19 31 view .LVU252
.LBE210:
.LBE219:
.LBE227:
# main.cpp:48:     *(scalar_t*)&dst[i * strides[0]] = interp_linear<out_ndims, scalar_t, index_t>(
	.loc 1 48 5 view .LVU253
	vmovss	%xmm0, (%r15,%r9)	# _280, MEM[(float *)_147]
	.loc 1 47 3 is_stmt 1 view .LVU254
	leaq	2(%rax), %r9	#, i
.LVL75:
	.loc 1 47 25 view .LVU255
	cmpq	%r9, %rsi	# i, _42
	jle	.L13	#,
# main.cpp:49:         src + i * strides[1], &data[2], &strides[2], i);
	.loc 1 49 17 is_stmt 0 view .LVU256
	salq	$2, %r9	#, _220
.LVL76:
# main.cpp:48:     *(scalar_t*)&dst[i * strides[0]] = interp_linear<out_ndims, scalar_t, index_t>(
	.loc 1 48 83 view .LVU257
	leaq	(%rbx,%r9), %r10	#, _215
.LVL77:
.LBB228:
	.loc 1 37 24 is_stmt 1 view .LVU258
.LBB220:
	.loc 1 10 28 view .LVU259
.LBB211:
# main.cpp:16:         scalar_t t0 = InterpLinear<n - 1, scalar_t, index_t>::eval(src + i0, &data[4], &strides[4], i);
	.loc 1 16 67 is_stmt 0 view .LVU260
	leaq	(%r10,%rdi), %r11	#, _217
.LVL78:
.LBB180:
	.loc 1 25 28 is_stmt 1 view .LVU261
	.loc 1 25 28 is_stmt 0 view .LVU262
.LBE180:
# main.cpp:17:         scalar_t t1 = InterpLinear<n - 1, scalar_t, index_t>::eval(src + i1, &data[4], &strides[4], i);
	.loc 1 17 67 view .LVU263
	addq	%r8, %r10	# _191, _150
.LVL79:
.LBB181:
.LBB155:
# main.cpp:32:         return t0 * w0 + t1 * w1;
	.loc 1 32 29 view .LVU264
	vmulss	(%r10,%rcx), %xmm5, %xmm1	# MEM[(float *)_10], pretmp_294, tmp428
.LBE155:
.LBE181:
.LBB182:
.LBB138:
	vmulss	(%r11,%rcx), %xmm5, %xmm0	# MEM[(float *)_211], pretmp_294, tmp427
.LBE138:
.LBE182:
.LBB183:
.LBB156:
# main.cpp:32:         return t0 * w0 + t1 * w1;
	.loc 1 32 31 view .LVU265
	vfmadd231ss	(%r10,%rdx), %xmm2, %xmm1	# MEM[(float *)_134], pretmp_292, _289
.LBE156:
.LBE183:
.LBB184:
.LBB139:
	vfmadd231ss	(%r11,%rdx), %xmm2, %xmm0	# MEM[(float *)_213], pretmp_292, _151
.LVL80:
	.loc 1 32 31 view .LVU266
.LBE139:
.LBE184:
.LBB185:
	.loc 1 25 28 is_stmt 1 view .LVU267
	.loc 1 25 28 is_stmt 0 view .LVU268
.LBE185:
# main.cpp:19:         return t0 * w0 + t1 * w1;
	.loc 1 19 29 view .LVU269
	vmulss	%xmm9, %xmm1, %xmm1	# pretmp_290, _289, tmp429
.LVL81:
# main.cpp:19:         return t0 * w0 + t1 * w1;
	.loc 1 19 31 view .LVU270
	vfmadd132ss	%xmm6, %xmm1, %xmm0	# pretmp_288, tmp429, _295
.LVL82:
	.loc 1 19 31 view .LVU271
.LBE211:
.LBE220:
.LBE228:
# main.cpp:48:     *(scalar_t*)&dst[i * strides[0]] = interp_linear<out_ndims, scalar_t, index_t>(
	.loc 1 48 5 view .LVU272
	vmovss	%xmm0, (%r15,%r9)	# _295, MEM[(float *)_216]
	.loc 1 47 3 is_stmt 1 view .LVU273
	leaq	3(%rax), %r9	#, i
.LVL83:
	.loc 1 47 25 view .LVU274
	cmpq	%r9, %rsi	# i, _42
	jle	.L13	#,
# main.cpp:49:         src + i * strides[1], &data[2], &strides[2], i);
	.loc 1 49 17 is_stmt 0 view .LVU275
	salq	$2, %r9	#, _322
.LVL84:
# main.cpp:48:     *(scalar_t*)&dst[i * strides[0]] = interp_linear<out_ndims, scalar_t, index_t>(
	.loc 1 48 83 view .LVU276
	leaq	(%rbx,%r9), %r10	#, _323
.LVL85:
.LBB229:
	.loc 1 37 24 is_stmt 1 view .LVU277
.LBB221:
	.loc 1 10 28 view .LVU278
.LBB212:
# main.cpp:16:         scalar_t t0 = InterpLinear<n - 1, scalar_t, index_t>::eval(src + i0, &data[4], &strides[4], i);
	.loc 1 16 67 is_stmt 0 view .LVU279
	leaq	(%r10,%rdi), %r11	#, _325
.LVL86:
.LBB186:
	.loc 1 25 28 is_stmt 1 view .LVU280
	.loc 1 25 28 is_stmt 0 view .LVU281
.LBE186:
# main.cpp:17:         scalar_t t1 = InterpLinear<n - 1, scalar_t, index_t>::eval(src + i1, &data[4], &strides[4], i);
	.loc 1 17 67 view .LVU282
	addq	%r8, %r10	# _191, _333
.LVL87:
.LBB187:
.LBB157:
# main.cpp:32:         return t0 * w0 + t1 * w1;
	.loc 1 32 29 view .LVU283
	vmulss	(%r10,%rcx), %xmm5, %xmm1	# MEM[(float *)_336], pretmp_294, tmp431
.LBE157:
.LBE187:
.LBB188:
.LBB140:
	vmulss	(%r11,%rcx), %xmm5, %xmm0	# MEM[(float *)_328], pretmp_294, tmp430
.LBE140:
.LBE188:
.LBB189:
.LBB158:
# main.cpp:32:         return t0 * w0 + t1 * w1;
	.loc 1 32 31 view .LVU284
	vfmadd231ss	(%r10,%rdx), %xmm2, %xmm1	# MEM[(float *)_334], pretmp_292, _340
.LBE158:
.LBE189:
.LBB190:
.LBB141:
	vfmadd231ss	(%r11,%rdx), %xmm2, %xmm0	# MEM[(float *)_326], pretmp_292, _332
.LVL88:
	.loc 1 32 31 view .LVU285
.LBE141:
.LBE190:
.LBB191:
	.loc 1 25 28 is_stmt 1 view .LVU286
	.loc 1 25 28 is_stmt 0 view .LVU287
.LBE191:
# main.cpp:19:         return t0 * w0 + t1 * w1;
	.loc 1 19 29 view .LVU288
	vmulss	%xmm1, %xmm9, %xmm1	# _340, pretmp_290, tmp432
.LVL89:
# main.cpp:19:         return t0 * w0 + t1 * w1;
	.loc 1 19 31 view .LVU289
	vfmadd132ss	%xmm6, %xmm1, %xmm0	# pretmp_288, tmp432, _343
.LVL90:
	.loc 1 19 31 view .LVU290
.LBE212:
.LBE221:
.LBE229:
# main.cpp:48:     *(scalar_t*)&dst[i * strides[0]] = interp_linear<out_ndims, scalar_t, index_t>(
	.loc 1 48 5 view .LVU291
	vmovss	%xmm0, (%r15,%r9)	# _343, MEM[(float *)_324]
	.loc 1 47 3 is_stmt 1 view .LVU292
	leaq	4(%rax), %r9	#, i
.LVL91:
	.loc 1 47 25 view .LVU293
	cmpq	%r9, %rsi	# i, _42
	jle	.L13	#,
# main.cpp:49:         src + i * strides[1], &data[2], &strides[2], i);
	.loc 1 49 17 is_stmt 0 view .LVU294
	salq	$2, %r9	#, _349
.LVL92:
# main.cpp:48:     *(scalar_t*)&dst[i * strides[0]] = interp_linear<out_ndims, scalar_t, index_t>(
	.loc 1 48 83 view .LVU295
	leaq	(%rbx,%r9), %r10	#, _350
.LVL93:
.LBB230:
	.loc 1 37 24 is_stmt 1 view .LVU296
.LBB222:
	.loc 1 10 28 view .LVU297
.LBB213:
# main.cpp:16:         scalar_t t0 = InterpLinear<n - 1, scalar_t, index_t>::eval(src + i0, &data[4], &strides[4], i);
	.loc 1 16 67 is_stmt 0 view .LVU298
	leaq	(%r10,%rdi), %r11	#, _352
.LVL94:
.LBB192:
	.loc 1 25 28 is_stmt 1 view .LVU299
	.loc 1 25 28 is_stmt 0 view .LVU300
.LBE192:
# main.cpp:17:         scalar_t t1 = InterpLinear<n - 1, scalar_t, index_t>::eval(src + i1, &data[4], &strides[4], i);
	.loc 1 17 67 view .LVU301
	addq	%r8, %r10	# _191, _360
.LVL95:
.LBB193:
.LBB159:
# main.cpp:32:         return t0 * w0 + t1 * w1;
	.loc 1 32 29 view .LVU302
	vmulss	(%r10,%rcx), %xmm5, %xmm1	# MEM[(float *)_363], pretmp_294, tmp434
.LBE159:
.LBE193:
.LBB194:
.LBB142:
	vmulss	(%r11,%rcx), %xmm5, %xmm0	# MEM[(float *)_355], pretmp_294, tmp433
.LBE142:
.LBE194:
.LBB195:
.LBB160:
# main.cpp:32:         return t0 * w0 + t1 * w1;
	.loc 1 32 31 view .LVU303
	vfmadd231ss	(%r10,%rdx), %xmm2, %xmm1	# MEM[(float *)_361], pretmp_292, _367
.LBE160:
.LBE195:
.LBB196:
.LBB143:
	vfmadd231ss	(%r11,%rdx), %xmm2, %xmm0	# MEM[(float *)_353], pretmp_292, _359
.LVL96:
	.loc 1 32 31 view .LVU304
.LBE143:
.LBE196:
.LBB197:
	.loc 1 25 28 is_stmt 1 view .LVU305
	.loc 1 25 28 is_stmt 0 view .LVU306
.LBE197:
# main.cpp:19:         return t0 * w0 + t1 * w1;
	.loc 1 19 29 view .LVU307
	vmulss	%xmm1, %xmm9, %xmm1	# _367, pretmp_290, tmp435
.LVL97:
# main.cpp:19:         return t0 * w0 + t1 * w1;
	.loc 1 19 31 view .LVU308
	vfmadd132ss	%xmm6, %xmm1, %xmm0	# pretmp_288, tmp435, _370
.LVL98:
	.loc 1 19 31 view .LVU309
.LBE213:
.LBE222:
.LBE230:
# main.cpp:48:     *(scalar_t*)&dst[i * strides[0]] = interp_linear<out_ndims, scalar_t, index_t>(
	.loc 1 48 5 view .LVU310
	vmovss	%xmm0, (%r15,%r9)	# _370, MEM[(float *)_351]
	.loc 1 47 3 is_stmt 1 view .LVU311
	leaq	5(%rax), %r9	#, i
.LVL99:
	.loc 1 47 25 view .LVU312
	cmpq	%r9, %rsi	# i, _42
	jle	.L13	#,
# main.cpp:49:         src + i * strides[1], &data[2], &strides[2], i);
	.loc 1 49 17 is_stmt 0 view .LVU313
	salq	$2, %r9	#, _376
.LVL100:
# main.cpp:47:   for (int64_t i = 0; i < n; i++) {
	.loc 1 47 3 view .LVU314
	addq	$6, %rax	#, i
.LVL101:
# main.cpp:48:     *(scalar_t*)&dst[i * strides[0]] = interp_linear<out_ndims, scalar_t, index_t>(
	.loc 1 48 83 view .LVU315
	leaq	(%rbx,%r9), %r10	#, _377
.LVL102:
.LBB231:
	.loc 1 37 24 is_stmt 1 view .LVU316
.LBB223:
	.loc 1 10 28 view .LVU317
.LBB214:
# main.cpp:16:         scalar_t t0 = InterpLinear<n - 1, scalar_t, index_t>::eval(src + i0, &data[4], &strides[4], i);
	.loc 1 16 67 is_stmt 0 view .LVU318
	leaq	(%r10,%rdi), %r11	#, _379
.LVL103:
.LBB198:
	.loc 1 25 28 is_stmt 1 view .LVU319
	.loc 1 25 28 is_stmt 0 view .LVU320
.LBE198:
# main.cpp:17:         scalar_t t1 = InterpLinear<n - 1, scalar_t, index_t>::eval(src + i1, &data[4], &strides[4], i);
	.loc 1 17 67 view .LVU321
	addq	%r8, %r10	# _191, _387
.LVL104:
.LBB199:
.LBB161:
# main.cpp:32:         return t0 * w0 + t1 * w1;
	.loc 1 32 29 view .LVU322
	vmulss	(%r10,%rcx), %xmm5, %xmm1	# MEM[(float *)_390], pretmp_294, tmp437
.LBE161:
.LBE199:
.LBB200:
.LBB144:
	vmulss	(%r11,%rcx), %xmm5, %xmm0	# MEM[(float *)_382], pretmp_294, tmp436
.LBE144:
.LBE200:
.LBB201:
.LBB162:
# main.cpp:32:         return t0 * w0 + t1 * w1;
	.loc 1 32 31 view .LVU323
	vfmadd231ss	(%r10,%rdx), %xmm2, %xmm1	# MEM[(float *)_388], pretmp_292, _394
.LBE162:
.LBE201:
.LBB202:
.LBB145:
	vfmadd231ss	(%r11,%rdx), %xmm2, %xmm0	# MEM[(float *)_380], pretmp_292, _386
.LVL105:
	.loc 1 32 31 view .LVU324
.LBE145:
.LBE202:
.LBB203:
	.loc 1 25 28 is_stmt 1 view .LVU325
	.loc 1 25 28 is_stmt 0 view .LVU326
.LBE203:
# main.cpp:19:         return t0 * w0 + t1 * w1;
	.loc 1 19 29 view .LVU327
	vmulss	%xmm1, %xmm9, %xmm1	# _394, pretmp_290, tmp438
.LVL106:
# main.cpp:19:         return t0 * w0 + t1 * w1;
	.loc 1 19 31 view .LVU328
	vfmadd132ss	%xmm6, %xmm1, %xmm0	# pretmp_288, tmp438, _397
.LVL107:
	.loc 1 19 31 view .LVU329
.LBE214:
.LBE223:
.LBE231:
# main.cpp:48:     *(scalar_t*)&dst[i * strides[0]] = interp_linear<out_ndims, scalar_t, index_t>(
	.loc 1 48 5 view .LVU330
	vmovss	%xmm0, (%r15,%r9)	# _397, MEM[(float *)_378]
	.loc 1 47 3 is_stmt 1 view .LVU331
.LVL108:
	.loc 1 47 25 view .LVU332
	cmpq	%rax, %rsi	# i, _42
	jle	.L13	#,
# main.cpp:49:         src + i * strides[1], &data[2], &strides[2], i);
	.loc 1 49 17 is_stmt 0 view .LVU333
	leaq	0(,%rax,4), %rsi	#, _65
# main.cpp:48:     *(scalar_t*)&dst[i * strides[0]] = interp_linear<out_ndims, scalar_t, index_t>(
	.loc 1 48 83 view .LVU334
	leaq	(%rbx,%rsi), %rax	#, _66
.LVL109:
.LBB232:
	.loc 1 37 24 is_stmt 1 view .LVU335
.LBB224:
	.loc 1 10 28 view .LVU336
.LBB215:
# main.cpp:16:         scalar_t t0 = InterpLinear<n - 1, scalar_t, index_t>::eval(src + i0, &data[4], &strides[4], i);
	.loc 1 16 67 is_stmt 0 view .LVU337
	addq	%rax, %rdi	# _66, _310
.LVL110:
.LBB204:
	.loc 1 25 28 is_stmt 1 view .LVU338
	.loc 1 25 28 is_stmt 0 view .LVU339
.LBE204:
# main.cpp:17:         scalar_t t1 = InterpLinear<n - 1, scalar_t, index_t>::eval(src + i1, &data[4], &strides[4], i);
	.loc 1 17 67 view .LVU340
	addq	%r8, %rax	# _191, _302
.LVL111:
.LBB205:
.LBB146:
# main.cpp:32:         return t0 * w0 + t1 * w1;
	.loc 1 32 29 view .LVU341
	vmulss	(%rdi,%rcx), %xmm5, %xmm0	# MEM[(float *)_307], pretmp_294, tmp439
# main.cpp:32:         return t0 * w0 + t1 * w1;
	.loc 1 32 31 view .LVU342
	vmovaps	%xmm0, %xmm1	# tmp439, tmp439
	vfmadd231ss	(%rdi,%rdx), %xmm2, %xmm1	# MEM[(float *)_309], pretmp_292, tmp439
.LVL112:
	.loc 1 32 31 view .LVU343
.LBE146:
.LBE205:
.LBB206:
	.loc 1 25 28 is_stmt 1 view .LVU344
.LBB163:
# main.cpp:32:         return t0 * w0 + t1 * w1;
	.loc 1 32 29 is_stmt 0 view .LVU345
	vmulss	(%rax,%rcx), %xmm5, %xmm0	# MEM[(float *)_299], pretmp_294, tmp440
# main.cpp:32:         return t0 * w0 + t1 * w1;
	.loc 1 32 31 view .LVU346
	vfmadd231ss	(%rax,%rdx), %xmm2, %xmm0	# MEM[(float *)_301], pretmp_292, _287
.LVL113:
	.loc 1 32 31 view .LVU347
.LBE163:
.LBE206:
# main.cpp:19:         return t0 * w0 + t1 * w1;
	.loc 1 19 29 view .LVU348
	vmulss	%xmm9, %xmm0, %xmm0	# pretmp_290, _287, tmp441
.LVL114:
# main.cpp:19:         return t0 * w0 + t1 * w1;
	.loc 1 19 31 view .LVU349
	vfmadd231ss	%xmm1, %xmm6, %xmm0	# _303, pretmp_288, _277
.LVL115:
	.loc 1 19 31 view .LVU350
.LBE215:
.LBE224:
.LBE232:
# main.cpp:48:     *(scalar_t*)&dst[i * strides[0]] = interp_linear<out_ndims, scalar_t, index_t>(
	.loc 1 48 5 view .LVU351
	vmovss	%xmm0, (%r15,%rsi)	# _277, MEM[(float *)_311]
	.loc 1 47 3 is_stmt 1 view .LVU352
	.loc 1 47 25 view .LVU353
	jmp	.L13	#
.L21:
	.loc 1 47 25 is_stmt 0 view .LVU354
	vzeroupper
	jmp	.L13	#
.LVL116:
	.loc 1 47 25 view .LVU355
.LBE126:
.LBE125:
.LBE124:
.LBE236:
.LBE240:
.LBE244:
	.cfi_endproc
	.section	.text.unlikely
	.cfi_startproc
	.type	main.cold, @function
main.cold:
.LFSB35:
.LBB245:
.LBB241:
.LBB237:
.LBB235:
.LBB234:
.LBB233:
.L2:
	.cfi_def_cfa 6, 16
	.cfi_offset 3, -56
	.cfi_offset 6, -16
	.cfi_offset 12, -48
	.cfi_offset 13, -40
	.cfi_offset 14, -32
	.cfi_offset 15, -24
.LBE233:
.LBE234:
.LBE235:
.LBE237:
.LBE241:
.LBE245:
# main.cpp:119:     float * output = new float[out_size];
	.loc 1 119 40 discriminator 2 view -0
	call	__cxa_throw_bad_array_new_length@PLT	#
.LVL117:
	.cfi_endproc
.LFE35:
	.section	.text.startup
	.size	main, .-main
	.section	.text.unlikely
	.size	main.cold, .-main.cold
.LCOLDE1:
	.section	.text.startup
.LHOTE1:
	.section	.rodata.cst4,"aM",@progbits,4
	.align 4
.LC0:
	.long	1065353216
	.text
.Letext0:
	.section	.text.unlikely
.Letext_cold0:
	.file 4 "/usr/include/c++/9/cstdlib"
	.file 5 "/usr/include/c++/9/bits/std_abs.h"
	.file 6 "/usr/include/x86_64-linux-gnu/c++/9/bits/c++config.h"
	.file 7 "/usr/lib/gcc/x86_64-linux-gnu/9/include/stddef.h"
	.file 8 "/usr/include/x86_64-linux-gnu/bits/types.h"
	.file 9 "/usr/include/x86_64-linux-gnu/bits/stdint-intn.h"
	.file 10 "/usr/include/x86_64-linux-gnu/bits/stdlib-bsearch.h"
	.file 11 "/usr/include/x86_64-linux-gnu/bits/stdlib.h"
	.file 12 "/usr/include/c++/9/stdlib.h"
	.file 13 "<built-in>"
	.section	.debug_info,"",@progbits
.Ldebug_info0:
	.long	0x13e6
	.value	0x4
	.long	.Ldebug_abbrev0
	.byte	0x8
	.uleb128 0x1
	.long	.LASF98
	.byte	0x4
	.long	.LASF99
	.long	.LASF100
	.long	.Ldebug_ranges0+0x880
	.quad	0
	.long	.Ldebug_line0
	.uleb128 0x2
	.string	"std"
	.byte	0xd
	.byte	0
	.long	0x218
	.uleb128 0x3
	.long	.LASF7
	.byte	0x6
	.value	0x114
	.byte	0x41
	.uleb128 0x4
	.byte	0x6
	.value	0x114
	.byte	0x41
	.long	0x34
	.uleb128 0x5
	.byte	0x4
	.byte	0x7f
	.byte	0xb
	.long	0x2fc
	.uleb128 0x5
	.byte	0x4
	.byte	0x80
	.byte	0xb
	.long	0x337
	.uleb128 0x5
	.byte	0x4
	.byte	0x86
	.byte	0xb
	.long	0x424
	.uleb128 0x5
	.byte	0x4
	.byte	0x89
	.byte	0xb
	.long	0x442
	.uleb128 0x5
	.byte	0x4
	.byte	0x8c
	.byte	0xb
	.long	0x45d
	.uleb128 0x5
	.byte	0x4
	.byte	0x8d
	.byte	0xb
	.long	0x47b
	.uleb128 0x5
	.byte	0x4
	.byte	0x8e
	.byte	0xb
	.long	0x49b
	.uleb128 0x5
	.byte	0x4
	.byte	0x8f
	.byte	0xb
	.long	0x4b2
	.uleb128 0x5
	.byte	0x4
	.byte	0x91
	.byte	0xb
	.long	0x4dc
	.uleb128 0x5
	.byte	0x4
	.byte	0x94
	.byte	0xb
	.long	0x4f8
	.uleb128 0x5
	.byte	0x4
	.byte	0x96
	.byte	0xb
	.long	0x50f
	.uleb128 0x5
	.byte	0x4
	.byte	0x99
	.byte	0xb
	.long	0x52b
	.uleb128 0x5
	.byte	0x4
	.byte	0x9a
	.byte	0xb
	.long	0x547
	.uleb128 0x5
	.byte	0x4
	.byte	0x9b
	.byte	0xb
	.long	0x579
	.uleb128 0x5
	.byte	0x4
	.byte	0x9d
	.byte	0xb
	.long	0x59a
	.uleb128 0x5
	.byte	0x4
	.byte	0xa0
	.byte	0xb
	.long	0x5bc
	.uleb128 0x5
	.byte	0x4
	.byte	0xa3
	.byte	0xb
	.long	0x5cf
	.uleb128 0x5
	.byte	0x4
	.byte	0xa5
	.byte	0xb
	.long	0x5dc
	.uleb128 0x5
	.byte	0x4
	.byte	0xa6
	.byte	0xb
	.long	0x5ef
	.uleb128 0x5
	.byte	0x4
	.byte	0xa7
	.byte	0xb
	.long	0x610
	.uleb128 0x5
	.byte	0x4
	.byte	0xa8
	.byte	0xb
	.long	0x630
	.uleb128 0x5
	.byte	0x4
	.byte	0xa9
	.byte	0xb
	.long	0x650
	.uleb128 0x5
	.byte	0x4
	.byte	0xab
	.byte	0xb
	.long	0x667
	.uleb128 0x5
	.byte	0x4
	.byte	0xac
	.byte	0xb
	.long	0x68d
	.uleb128 0x5
	.byte	0x4
	.byte	0xf0
	.byte	0x16
	.long	0x372
	.uleb128 0x5
	.byte	0x4
	.byte	0xf5
	.byte	0x16
	.long	0x26f
	.uleb128 0x5
	.byte	0x4
	.byte	0xf6
	.byte	0x16
	.long	0x6a8
	.uleb128 0x5
	.byte	0x4
	.byte	0xf8
	.byte	0x16
	.long	0x6c4
	.uleb128 0x5
	.byte	0x4
	.byte	0xf9
	.byte	0x16
	.long	0x71b
	.uleb128 0x5
	.byte	0x4
	.byte	0xfa
	.byte	0x16
	.long	0x6db
	.uleb128 0x5
	.byte	0x4
	.byte	0xfb
	.byte	0x16
	.long	0x6fb
	.uleb128 0x5
	.byte	0x4
	.byte	0xfc
	.byte	0x16
	.long	0x736
	.uleb128 0x6
	.string	"abs"
	.byte	0x5
	.byte	0x67
	.byte	0x3
	.long	.LASF0
	.long	0x2ac
	.long	0x160
	.uleb128 0x7
	.long	0x2ac
	.byte	0
	.uleb128 0x6
	.string	"abs"
	.byte	0x5
	.byte	0x55
	.byte	0x3
	.long	.LASF1
	.long	0x781
	.long	0x17a
	.uleb128 0x7
	.long	0x781
	.byte	0
	.uleb128 0x6
	.string	"abs"
	.byte	0x5
	.byte	0x4f
	.byte	0x3
	.long	.LASF2
	.long	0x2c1
	.long	0x194
	.uleb128 0x7
	.long	0x2c1
	.byte	0
	.uleb128 0x6
	.string	"abs"
	.byte	0x5
	.byte	0x4b
	.byte	0x3
	.long	.LASF3
	.long	0x2b3
	.long	0x1ae
	.uleb128 0x7
	.long	0x2b3
	.byte	0
	.uleb128 0x6
	.string	"abs"
	.byte	0x5
	.byte	0x47
	.byte	0x3
	.long	.LASF4
	.long	0x2ba
	.long	0x1c8
	.uleb128 0x7
	.long	0x2ba
	.byte	0
	.uleb128 0x6
	.string	"abs"
	.byte	0x5
	.byte	0x3d
	.byte	0x3
	.long	.LASF5
	.long	0x36b
	.long	0x1e2
	.uleb128 0x7
	.long	0x36b
	.byte	0
	.uleb128 0x6
	.string	"abs"
	.byte	0x5
	.byte	0x38
	.byte	0x3
	.long	.LASF6
	.long	0x330
	.long	0x1fc
	.uleb128 0x7
	.long	0x330
	.byte	0
	.uleb128 0x8
	.string	"div"
	.byte	0x4
	.byte	0xb1
	.byte	0x3
	.long	.LASF8
	.long	0x337
	.uleb128 0x7
	.long	0x330
	.uleb128 0x7
	.long	0x330
	.byte	0
	.byte	0
	.uleb128 0x9
	.long	.LASF101
	.byte	0x6
	.value	0x116
	.byte	0xb
	.long	0x28b
	.uleb128 0x3
	.long	.LASF7
	.byte	0x6
	.value	0x118
	.byte	0x41
	.uleb128 0x4
	.byte	0x6
	.value	0x118
	.byte	0x41
	.long	0x225
	.uleb128 0x5
	.byte	0x4
	.byte	0xc8
	.byte	0xb
	.long	0x372
	.uleb128 0x5
	.byte	0x4
	.byte	0xd8
	.byte	0xb
	.long	0x6a8
	.uleb128 0x5
	.byte	0x4
	.byte	0xe3
	.byte	0xb
	.long	0x6c4
	.uleb128 0x5
	.byte	0x4
	.byte	0xe4
	.byte	0xb
	.long	0x6db
	.uleb128 0x5
	.byte	0x4
	.byte	0xe5
	.byte	0xb
	.long	0x6fb
	.uleb128 0x5
	.byte	0x4
	.byte	0xe7
	.byte	0xb
	.long	0x71b
	.uleb128 0x5
	.byte	0x4
	.byte	0xe8
	.byte	0xb
	.long	0x736
	.uleb128 0x8
	.string	"div"
	.byte	0x4
	.byte	0xd5
	.byte	0x3
	.long	.LASF9
	.long	0x372
	.uleb128 0x7
	.long	0x36b
	.uleb128 0x7
	.long	0x36b
	.byte	0
	.byte	0
	.uleb128 0xa
	.long	.LASF18
	.byte	0x7
	.byte	0xd1
	.byte	0x17
	.long	0x297
	.uleb128 0xb
	.byte	0x8
	.byte	0x7
	.long	.LASF10
	.uleb128 0xb
	.byte	0x4
	.byte	0x7
	.long	.LASF11
	.uleb128 0xb
	.byte	0x20
	.byte	0x3
	.long	.LASF12
	.uleb128 0xb
	.byte	0x10
	.byte	0x4
	.long	.LASF13
	.uleb128 0xb
	.byte	0x4
	.byte	0x4
	.long	.LASF14
	.uleb128 0xb
	.byte	0x8
	.byte	0x4
	.long	.LASF15
	.uleb128 0xb
	.byte	0x10
	.byte	0x4
	.long	.LASF16
	.uleb128 0xc
	.byte	0x8
	.byte	0x2
	.byte	0x3b
	.byte	0x3
	.long	.LASF20
	.long	0x2f0
	.uleb128 0xd
	.long	.LASF17
	.byte	0x2
	.byte	0x3c
	.byte	0x9
	.long	0x2f0
	.byte	0
	.uleb128 0xe
	.string	"rem"
	.byte	0x2
	.byte	0x3d
	.byte	0x9
	.long	0x2f0
	.byte	0x4
	.byte	0
	.uleb128 0xf
	.byte	0x4
	.byte	0x5
	.string	"int"
	.uleb128 0x10
	.long	0x2f0
	.uleb128 0xa
	.long	.LASF19
	.byte	0x2
	.byte	0x3e
	.byte	0x5
	.long	0x2c8
	.uleb128 0xc
	.byte	0x10
	.byte	0x2
	.byte	0x43
	.byte	0x3
	.long	.LASF21
	.long	0x330
	.uleb128 0xd
	.long	.LASF17
	.byte	0x2
	.byte	0x44
	.byte	0xe
	.long	0x330
	.byte	0
	.uleb128 0xe
	.string	"rem"
	.byte	0x2
	.byte	0x45
	.byte	0xe
	.long	0x330
	.byte	0x8
	.byte	0
	.uleb128 0xb
	.byte	0x8
	.byte	0x5
	.long	.LASF22
	.uleb128 0xa
	.long	.LASF23
	.byte	0x2
	.byte	0x46
	.byte	0x5
	.long	0x308
	.uleb128 0xc
	.byte	0x10
	.byte	0x2
	.byte	0x4d
	.byte	0x3
	.long	.LASF24
	.long	0x36b
	.uleb128 0xd
	.long	.LASF17
	.byte	0x2
	.byte	0x4e
	.byte	0x13
	.long	0x36b
	.byte	0
	.uleb128 0xe
	.string	"rem"
	.byte	0x2
	.byte	0x4f
	.byte	0x13
	.long	0x36b
	.byte	0x8
	.byte	0
	.uleb128 0xb
	.byte	0x8
	.byte	0x5
	.long	.LASF25
	.uleb128 0xa
	.long	.LASF26
	.byte	0x2
	.byte	0x50
	.byte	0x5
	.long	0x343
	.uleb128 0xb
	.byte	0x2
	.byte	0x7
	.long	.LASF27
	.uleb128 0x11
	.byte	0x8
	.long	0x392
	.uleb128 0xb
	.byte	0x1
	.byte	0x6
	.long	.LASF28
	.uleb128 0x10
	.long	0x38b
	.uleb128 0xb
	.byte	0x1
	.byte	0x8
	.long	.LASF29
	.uleb128 0xb
	.byte	0x1
	.byte	0x6
	.long	.LASF30
	.uleb128 0xb
	.byte	0x2
	.byte	0x5
	.long	.LASF31
	.uleb128 0xa
	.long	.LASF32
	.byte	0x8
	.byte	0x29
	.byte	0x14
	.long	0x2f0
	.uleb128 0xa
	.long	.LASF33
	.byte	0x8
	.byte	0x2c
	.byte	0x19
	.long	0x330
	.uleb128 0x12
	.byte	0x8
	.uleb128 0x11
	.byte	0x8
	.long	0x38b
	.uleb128 0xa
	.long	.LASF34
	.byte	0x9
	.byte	0x1a
	.byte	0x13
	.long	0x3ac
	.uleb128 0xa
	.long	.LASF35
	.byte	0x9
	.byte	0x1b
	.byte	0x13
	.long	0x3b8
	.uleb128 0x10
	.long	0x3d8
	.uleb128 0xb
	.byte	0x8
	.byte	0x7
	.long	.LASF36
	.uleb128 0x11
	.byte	0x8
	.long	0x3cc
	.uleb128 0x13
	.long	.LASF37
	.byte	0x2
	.value	0x328
	.byte	0xf
	.long	0x403
	.uleb128 0x11
	.byte	0x8
	.long	0x409
	.uleb128 0x14
	.long	0x2f0
	.long	0x41d
	.uleb128 0x7
	.long	0x41d
	.uleb128 0x7
	.long	0x41d
	.byte	0
	.uleb128 0x11
	.byte	0x8
	.long	0x423
	.uleb128 0x15
	.uleb128 0x16
	.long	.LASF38
	.byte	0x2
	.value	0x253
	.byte	0xc
	.long	0x2f0
	.long	0x43b
	.uleb128 0x7
	.long	0x43b
	.byte	0
	.uleb128 0x11
	.byte	0x8
	.long	0x441
	.uleb128 0x17
	.uleb128 0x18
	.long	.LASF39
	.byte	0x2
	.value	0x258
	.byte	0x12
	.long	.LASF39
	.long	0x2f0
	.long	0x45d
	.uleb128 0x7
	.long	0x43b
	.byte	0
	.uleb128 0x19
	.long	.LASF40
	.byte	0x3
	.byte	0x19
	.byte	0x1
	.long	0x2ba
	.byte	0x3
	.long	0x47b
	.uleb128 0x1a
	.long	.LASF42
	.byte	0x3
	.byte	0x19
	.byte	0x1
	.long	0x385
	.byte	0
	.uleb128 0x1b
	.long	.LASF41
	.byte	0x2
	.value	0x169
	.byte	0x1
	.long	0x2f0
	.byte	0x3
	.long	0x49b
	.uleb128 0x1c
	.long	.LASF42
	.byte	0x2
	.value	0x169
	.byte	0x1
	.long	0x385
	.byte	0
	.uleb128 0x16
	.long	.LASF43
	.byte	0x2
	.value	0x16e
	.byte	0x1
	.long	0x330
	.long	0x4b2
	.uleb128 0x7
	.long	0x385
	.byte	0
	.uleb128 0x1d
	.long	.LASF44
	.byte	0xa
	.byte	0x14
	.byte	0x1
	.long	0x3c4
	.long	0x4dc
	.uleb128 0x7
	.long	0x41d
	.uleb128 0x7
	.long	0x41d
	.uleb128 0x7
	.long	0x28b
	.uleb128 0x7
	.long	0x28b
	.uleb128 0x7
	.long	0x3f6
	.byte	0
	.uleb128 0x1e
	.string	"div"
	.byte	0x2
	.value	0x354
	.byte	0xe
	.long	0x2fc
	.long	0x4f8
	.uleb128 0x7
	.long	0x2f0
	.uleb128 0x7
	.long	0x2f0
	.byte	0
	.uleb128 0x16
	.long	.LASF45
	.byte	0x2
	.value	0x27a
	.byte	0xe
	.long	0x3c6
	.long	0x50f
	.uleb128 0x7
	.long	0x385
	.byte	0
	.uleb128 0x16
	.long	.LASF46
	.byte	0x2
	.value	0x356
	.byte	0xf
	.long	0x337
	.long	0x52b
	.uleb128 0x7
	.long	0x330
	.uleb128 0x7
	.long	0x330
	.byte	0
	.uleb128 0x16
	.long	.LASF47
	.byte	0x2
	.value	0x39a
	.byte	0xc
	.long	0x2f0
	.long	0x547
	.uleb128 0x7
	.long	0x385
	.uleb128 0x7
	.long	0x28b
	.byte	0
	.uleb128 0x1d
	.long	.LASF48
	.byte	0xb
	.byte	0x71
	.byte	0x1
	.long	0x28b
	.long	0x567
	.uleb128 0x7
	.long	0x567
	.uleb128 0x7
	.long	0x385
	.uleb128 0x7
	.long	0x28b
	.byte	0
	.uleb128 0x11
	.byte	0x8
	.long	0x56d
	.uleb128 0xb
	.byte	0x4
	.byte	0x5
	.long	.LASF49
	.uleb128 0x10
	.long	0x56d
	.uleb128 0x16
	.long	.LASF50
	.byte	0x2
	.value	0x39d
	.byte	0xc
	.long	0x2f0
	.long	0x59a
	.uleb128 0x7
	.long	0x567
	.uleb128 0x7
	.long	0x385
	.uleb128 0x7
	.long	0x28b
	.byte	0
	.uleb128 0x1f
	.long	.LASF52
	.byte	0x2
	.value	0x33e
	.byte	0xd
	.long	0x5bc
	.uleb128 0x7
	.long	0x3c4
	.uleb128 0x7
	.long	0x28b
	.uleb128 0x7
	.long	0x28b
	.uleb128 0x7
	.long	0x3f6
	.byte	0
	.uleb128 0x20
	.long	.LASF51
	.byte	0x2
	.value	0x26f
	.byte	0xd
	.long	0x5cf
	.uleb128 0x7
	.long	0x2f0
	.byte	0
	.uleb128 0x21
	.long	.LASF102
	.byte	0x2
	.value	0x1c5
	.byte	0xc
	.long	0x2f0
	.uleb128 0x1f
	.long	.LASF53
	.byte	0x2
	.value	0x1c7
	.byte	0xd
	.long	0x5ef
	.uleb128 0x7
	.long	0x29e
	.byte	0
	.uleb128 0x1d
	.long	.LASF54
	.byte	0x2
	.byte	0x75
	.byte	0xf
	.long	0x2ba
	.long	0x60a
	.uleb128 0x7
	.long	0x385
	.uleb128 0x7
	.long	0x60a
	.byte	0
	.uleb128 0x11
	.byte	0x8
	.long	0x3c6
	.uleb128 0x1d
	.long	.LASF55
	.byte	0x2
	.byte	0xb0
	.byte	0x11
	.long	0x330
	.long	0x630
	.uleb128 0x7
	.long	0x385
	.uleb128 0x7
	.long	0x60a
	.uleb128 0x7
	.long	0x2f0
	.byte	0
	.uleb128 0x1d
	.long	.LASF56
	.byte	0x2
	.byte	0xb4
	.byte	0x1a
	.long	0x297
	.long	0x650
	.uleb128 0x7
	.long	0x385
	.uleb128 0x7
	.long	0x60a
	.uleb128 0x7
	.long	0x2f0
	.byte	0
	.uleb128 0x16
	.long	.LASF57
	.byte	0x2
	.value	0x310
	.byte	0xc
	.long	0x2f0
	.long	0x667
	.uleb128 0x7
	.long	0x385
	.byte	0
	.uleb128 0x1d
	.long	.LASF58
	.byte	0xb
	.byte	0x90
	.byte	0x1
	.long	0x28b
	.long	0x687
	.uleb128 0x7
	.long	0x3c6
	.uleb128 0x7
	.long	0x687
	.uleb128 0x7
	.long	0x28b
	.byte	0
	.uleb128 0x11
	.byte	0x8
	.long	0x574
	.uleb128 0x1d
	.long	.LASF59
	.byte	0xb
	.byte	0x53
	.byte	0x1
	.long	0x2f0
	.long	0x6a8
	.uleb128 0x7
	.long	0x3c6
	.uleb128 0x7
	.long	0x56d
	.byte	0
	.uleb128 0x16
	.long	.LASF60
	.byte	0x2
	.value	0x35a
	.byte	0x1e
	.long	0x372
	.long	0x6c4
	.uleb128 0x7
	.long	0x36b
	.uleb128 0x7
	.long	0x36b
	.byte	0
	.uleb128 0x16
	.long	.LASF61
	.byte	0x2
	.value	0x175
	.byte	0x1
	.long	0x36b
	.long	0x6db
	.uleb128 0x7
	.long	0x385
	.byte	0
	.uleb128 0x1d
	.long	.LASF62
	.byte	0x2
	.byte	0xc8
	.byte	0x16
	.long	0x36b
	.long	0x6fb
	.uleb128 0x7
	.long	0x385
	.uleb128 0x7
	.long	0x60a
	.uleb128 0x7
	.long	0x2f0
	.byte	0
	.uleb128 0x1d
	.long	.LASF63
	.byte	0x2
	.byte	0xcd
	.byte	0x1f
	.long	0x3e9
	.long	0x71b
	.uleb128 0x7
	.long	0x385
	.uleb128 0x7
	.long	0x60a
	.uleb128 0x7
	.long	0x2f0
	.byte	0
	.uleb128 0x1d
	.long	.LASF64
	.byte	0x2
	.byte	0x7b
	.byte	0xe
	.long	0x2b3
	.long	0x736
	.uleb128 0x7
	.long	0x385
	.uleb128 0x7
	.long	0x60a
	.byte	0
	.uleb128 0x1d
	.long	.LASF65
	.byte	0x2
	.byte	0x7e
	.byte	0x14
	.long	0x2c1
	.long	0x751
	.uleb128 0x7
	.long	0x385
	.uleb128 0x7
	.long	0x60a
	.byte	0
	.uleb128 0x5
	.byte	0xc
	.byte	0x27
	.byte	0xc
	.long	0x424
	.uleb128 0x5
	.byte	0xc
	.byte	0x2b
	.byte	0xe
	.long	0x442
	.uleb128 0x5
	.byte	0xc
	.byte	0x2e
	.byte	0xe
	.long	0x5bc
	.uleb128 0x5
	.byte	0xc
	.byte	0x33
	.byte	0xc
	.long	0x2fc
	.uleb128 0x5
	.byte	0xc
	.byte	0x34
	.byte	0xc
	.long	0x337
	.uleb128 0x5
	.byte	0xc
	.byte	0x36
	.byte	0xc
	.long	0x146
	.uleb128 0xb
	.byte	0x10
	.byte	0x5
	.long	.LASF66
	.uleb128 0x5
	.byte	0xc
	.byte	0x36
	.byte	0xc
	.long	0x160
	.uleb128 0x5
	.byte	0xc
	.byte	0x36
	.byte	0xc
	.long	0x17a
	.uleb128 0x5
	.byte	0xc
	.byte	0x36
	.byte	0xc
	.long	0x194
	.uleb128 0x5
	.byte	0xc
	.byte	0x36
	.byte	0xc
	.long	0x1ae
	.uleb128 0x5
	.byte	0xc
	.byte	0x36
	.byte	0xc
	.long	0x1c8
	.uleb128 0x5
	.byte	0xc
	.byte	0x36
	.byte	0xc
	.long	0x1e2
	.uleb128 0x1e
	.string	"abs"
	.byte	0x2
	.value	0x348
	.byte	0xc
	.long	0x2f0
	.long	0x7cf
	.uleb128 0x7
	.long	0x2f0
	.byte	0
	.uleb128 0x5
	.byte	0xc
	.byte	0x36
	.byte	0xc
	.long	0x7b8
	.uleb128 0x5
	.byte	0xc
	.byte	0x37
	.byte	0xc
	.long	0x45d
	.uleb128 0x5
	.byte	0xc
	.byte	0x38
	.byte	0xc
	.long	0x47b
	.uleb128 0x5
	.byte	0xc
	.byte	0x39
	.byte	0xc
	.long	0x49b
	.uleb128 0x5
	.byte	0xc
	.byte	0x3a
	.byte	0xc
	.long	0x4b2
	.uleb128 0x5
	.byte	0xc
	.byte	0x3c
	.byte	0xc
	.long	0x26f
	.uleb128 0x5
	.byte	0xc
	.byte	0x3c
	.byte	0xc
	.long	0x1fc
	.uleb128 0x5
	.byte	0xc
	.byte	0x3c
	.byte	0xc
	.long	0x4dc
	.uleb128 0x5
	.byte	0xc
	.byte	0x3e
	.byte	0xc
	.long	0x4f8
	.uleb128 0x5
	.byte	0xc
	.byte	0x40
	.byte	0xc
	.long	0x50f
	.uleb128 0x5
	.byte	0xc
	.byte	0x43
	.byte	0xc
	.long	0x52b
	.uleb128 0x5
	.byte	0xc
	.byte	0x44
	.byte	0xc
	.long	0x547
	.uleb128 0x5
	.byte	0xc
	.byte	0x45
	.byte	0xc
	.long	0x579
	.uleb128 0x5
	.byte	0xc
	.byte	0x47
	.byte	0xc
	.long	0x59a
	.uleb128 0x5
	.byte	0xc
	.byte	0x48
	.byte	0xc
	.long	0x5cf
	.uleb128 0x5
	.byte	0xc
	.byte	0x4a
	.byte	0xc
	.long	0x5dc
	.uleb128 0x5
	.byte	0xc
	.byte	0x4b
	.byte	0xc
	.long	0x5ef
	.uleb128 0x5
	.byte	0xc
	.byte	0x4c
	.byte	0xc
	.long	0x610
	.uleb128 0x5
	.byte	0xc
	.byte	0x4d
	.byte	0xc
	.long	0x630
	.uleb128 0x5
	.byte	0xc
	.byte	0x4e
	.byte	0xc
	.long	0x650
	.uleb128 0x5
	.byte	0xc
	.byte	0x50
	.byte	0xc
	.long	0x667
	.uleb128 0x5
	.byte	0xc
	.byte	0x51
	.byte	0xc
	.long	0x68d
	.uleb128 0x22
	.long	.LASF71
	.byte	0x1
	.byte	0x1
	.byte	0x41
	.byte	0x8
	.long	0x8c9
	.uleb128 0x23
	.long	.LASF67
	.byte	0x1
	.byte	0x42
	.byte	0x16
	.long	.LASF73
	.long	0x8c9
	.long	0x8a6
	.uleb128 0x7
	.long	0x8d0
	.byte	0
	.uleb128 0x24
	.string	"N"
	.long	0x2f0
	.byte	0x2
	.uleb128 0x25
	.string	"s"
	.long	0x2f0
	.sleb128 -1
	.uleb128 0x26
	.long	.LASF68
	.long	0x2b3
	.uleb128 0x26
	.long	.LASF69
	.long	0x2f0
	.byte	0
	.uleb128 0xb
	.byte	0x1
	.byte	0x2
	.long	.LASF70
	.uleb128 0x11
	.byte	0x8
	.long	0x3e4
	.uleb128 0x22
	.long	.LASF72
	.byte	0x1
	.byte	0x1
	.byte	0x49
	.byte	0x8
	.long	0x920
	.uleb128 0x23
	.long	.LASF67
	.byte	0x1
	.byte	0x4a
	.byte	0x16
	.long	.LASF74
	.long	0x8c9
	.long	0x8fd
	.uleb128 0x7
	.long	0x8d0
	.byte	0
	.uleb128 0x24
	.string	"N"
	.long	0x2f0
	.byte	0x1
	.uleb128 0x25
	.string	"s"
	.long	0x2f0
	.sleb128 -1
	.uleb128 0x26
	.long	.LASF68
	.long	0x2b3
	.uleb128 0x26
	.long	.LASF69
	.long	0x2f0
	.byte	0
	.uleb128 0x22
	.long	.LASF75
	.byte	0x1
	.byte	0x1
	.byte	0x9
	.byte	0x8
	.long	0x971
	.uleb128 0x23
	.long	.LASF67
	.byte	0x1
	.byte	0xa
	.byte	0x1c
	.long	.LASF76
	.long	0x2b3
	.long	0x956
	.uleb128 0x7
	.long	0x3c6
	.uleb128 0x7
	.long	0x60a
	.uleb128 0x7
	.long	0x8d0
	.uleb128 0x7
	.long	0x3d8
	.byte	0
	.uleb128 0x24
	.string	"n"
	.long	0x2f0
	.byte	0x2
	.uleb128 0x26
	.long	.LASF68
	.long	0x2b3
	.uleb128 0x26
	.long	.LASF69
	.long	0x2f0
	.byte	0
	.uleb128 0x22
	.long	.LASF77
	.byte	0x1
	.byte	0x1
	.byte	0x18
	.byte	0x8
	.long	0x9c2
	.uleb128 0x23
	.long	.LASF67
	.byte	0x1
	.byte	0x19
	.byte	0x1c
	.long	.LASF78
	.long	0x2b3
	.long	0x9a7
	.uleb128 0x7
	.long	0x3c6
	.uleb128 0x7
	.long	0x60a
	.uleb128 0x7
	.long	0x8d0
	.uleb128 0x7
	.long	0x3d8
	.byte	0
	.uleb128 0x24
	.string	"n"
	.long	0x2f0
	.byte	0x1
	.uleb128 0x26
	.long	.LASF68
	.long	0x2b3
	.uleb128 0x26
	.long	.LASF69
	.long	0x2f0
	.byte	0
	.uleb128 0x27
	.long	0x97e
	.byte	0x3
	.long	0xa3d
	.uleb128 0x28
	.string	"src"
	.byte	0x1
	.byte	0x19
	.byte	0x27
	.long	0x3c6
	.uleb128 0x1a
	.long	.LASF79
	.byte	0x1
	.byte	0x19
	.byte	0x33
	.long	0x60a
	.uleb128 0x1a
	.long	.LASF80
	.byte	0x1
	.byte	0x19
	.byte	0x48
	.long	0x8d0
	.uleb128 0x28
	.string	"i"
	.byte	0x1
	.byte	0x19
	.byte	0x59
	.long	0x3d8
	.uleb128 0x29
	.string	"i0"
	.byte	0x1
	.byte	0x1a
	.byte	0x11
	.long	0x2f0
	.uleb128 0x29
	.string	"i1"
	.byte	0x1
	.byte	0x1b
	.byte	0x11
	.long	0x2f0
	.uleb128 0x29
	.string	"w0"
	.byte	0x1
	.byte	0x1c
	.byte	0x12
	.long	0x2b3
	.uleb128 0x29
	.string	"w1"
	.byte	0x1
	.byte	0x1d
	.byte	0x12
	.long	0x2b3
	.uleb128 0x29
	.string	"t0"
	.byte	0x1
	.byte	0x1e
	.byte	0x12
	.long	0x2b3
	.uleb128 0x29
	.string	"t1"
	.byte	0x1
	.byte	0x1f
	.byte	0x12
	.long	0x2b3
	.byte	0
	.uleb128 0x27
	.long	0x92d
	.byte	0x3
	.long	0xab8
	.uleb128 0x28
	.string	"src"
	.byte	0x1
	.byte	0xa
	.byte	0x27
	.long	0x3c6
	.uleb128 0x1a
	.long	.LASF79
	.byte	0x1
	.byte	0xa
	.byte	0x33
	.long	0x60a
	.uleb128 0x1a
	.long	.LASF80
	.byte	0x1
	.byte	0xa
	.byte	0x48
	.long	0x8d0
	.uleb128 0x28
	.string	"i"
	.byte	0x1
	.byte	0xa
	.byte	0x59
	.long	0x3d8
	.uleb128 0x29
	.string	"i0"
	.byte	0x1
	.byte	0xb
	.byte	0x11
	.long	0x2f0
	.uleb128 0x29
	.string	"i1"
	.byte	0x1
	.byte	0xc
	.byte	0x11
	.long	0x2f0
	.uleb128 0x29
	.string	"w0"
	.byte	0x1
	.byte	0xd
	.byte	0x12
	.long	0x2b3
	.uleb128 0x29
	.string	"w1"
	.byte	0x1
	.byte	0xe
	.byte	0x12
	.long	0x2b3
	.uleb128 0x29
	.string	"t0"
	.byte	0x1
	.byte	0x10
	.byte	0x12
	.long	0x2b3
	.uleb128 0x29
	.string	"t1"
	.byte	0x1
	.byte	0x11
	.byte	0x12
	.long	0x2b3
	.byte	0
	.uleb128 0x27
	.long	0x8e3
	.byte	0x3
	.long	0xacf
	.uleb128 0x1a
	.long	.LASF80
	.byte	0x1
	.byte	0x4a
	.byte	0x2a
	.long	0x8d0
	.byte	0
	.uleb128 0x2a
	.long	.LASF82
	.byte	0x1
	.byte	0x25
	.byte	0x18
	.long	0x2b3
	.byte	0x3
	.long	0xb29
	.uleb128 0x24
	.string	"n"
	.long	0x2f0
	.byte	0x2
	.uleb128 0x26
	.long	.LASF68
	.long	0x2b3
	.uleb128 0x26
	.long	.LASF69
	.long	0x2f0
	.uleb128 0x28
	.string	"src"
	.byte	0x1
	.byte	0x25
	.byte	0x2c
	.long	0x3c6
	.uleb128 0x1a
	.long	.LASF79
	.byte	0x1
	.byte	0x25
	.byte	0x38
	.long	0x60a
	.uleb128 0x1a
	.long	.LASF80
	.byte	0x1
	.byte	0x25
	.byte	0x4d
	.long	0x8d0
	.uleb128 0x28
	.string	"i"
	.byte	0x1
	.byte	0x25
	.byte	0x5e
	.long	0x3d8
	.byte	0
	.uleb128 0x27
	.long	0x88c
	.byte	0x3
	.long	0xb40
	.uleb128 0x1a
	.long	.LASF80
	.byte	0x1
	.byte	0x42
	.byte	0x2a
	.long	0x8d0
	.byte	0
	.uleb128 0x2b
	.long	.LASF103
	.byte	0x1
	.byte	0x2b
	.byte	0x1
	.byte	0x3
	.long	0xbb0
	.uleb128 0x26
	.long	.LASF68
	.long	0x2b3
	.uleb128 0x26
	.long	.LASF69
	.long	0x2f0
	.uleb128 0x2c
	.long	.LASF81
	.long	0x2f0
	.byte	0x2
	.uleb128 0x1a
	.long	.LASF79
	.byte	0x1
	.byte	0x2b
	.byte	0x13
	.long	0x60a
	.uleb128 0x1a
	.long	.LASF80
	.byte	0x1
	.byte	0x2b
	.byte	0x28
	.long	0x8d0
	.uleb128 0x28
	.string	"n"
	.byte	0x1
	.byte	0x2b
	.byte	0x3f
	.long	0x3e4
	.uleb128 0x29
	.string	"dst"
	.byte	0x1
	.byte	0x2c
	.byte	0x9
	.long	0x3c6
	.uleb128 0x29
	.string	"src"
	.byte	0x1
	.byte	0x2d
	.byte	0x9
	.long	0x3c6
	.uleb128 0x2d
	.uleb128 0x29
	.string	"i"
	.byte	0x1
	.byte	0x2f
	.byte	0x10
	.long	0x3d8
	.byte	0
	.byte	0
	.uleb128 0x2a
	.long	.LASF83
	.byte	0x1
	.byte	0x50
	.byte	0x14
	.long	0x8c9
	.byte	0x3
	.long	0xbf0
	.uleb128 0x24
	.string	"n"
	.long	0x2f0
	.byte	0x2
	.uleb128 0x25
	.string	"s"
	.long	0x2f0
	.sleb128 -1
	.uleb128 0x26
	.long	.LASF68
	.long	0x2b3
	.uleb128 0x26
	.long	.LASF69
	.long	0x2f0
	.uleb128 0x1a
	.long	.LASF80
	.byte	0x1
	.byte	0x50
	.byte	0x36
	.long	0x8d0
	.byte	0
	.uleb128 0x2e
	.long	.LASF84
	.byte	0x1
	.byte	0x55
	.byte	0x6
	.long	.LASF104
	.byte	0x1
	.long	0xc40
	.uleb128 0x26
	.long	.LASF68
	.long	0x2b3
	.uleb128 0x26
	.long	.LASF69
	.long	0x2f0
	.uleb128 0x2c
	.long	.LASF81
	.long	0x2f0
	.byte	0x2
	.uleb128 0x1a
	.long	.LASF79
	.byte	0x1
	.byte	0x55
	.byte	0x24
	.long	0x60a
	.uleb128 0x1a
	.long	.LASF80
	.byte	0x1
	.byte	0x55
	.byte	0x33
	.long	0xc40
	.uleb128 0x28
	.string	"n"
	.byte	0x1
	.byte	0x55
	.byte	0x4a
	.long	0x3e4
	.byte	0
	.uleb128 0x11
	.byte	0x8
	.long	0x3d8
	.uleb128 0x2f
	.long	.LASF105
	.byte	0x1
	.byte	0x71
	.byte	0x5
	.long	0x2f0
	.long	.Ldebug_ranges0+0
	.uleb128 0x1
	.byte	0x9c
	.long	0x13aa
	.uleb128 0x30
	.long	.LASF85
	.byte	0x1
	.byte	0x71
	.byte	0xe
	.long	0x2f0
	.long	.LLST0
	.long	.LVUS0
	.uleb128 0x30
	.long	.LASF86
	.byte	0x1
	.byte	0x71
	.byte	0x1c
	.long	0x60a
	.long	.LLST1
	.long	.LVUS1
	.uleb128 0x31
	.long	.LASF87
	.byte	0x1
	.byte	0x73
	.byte	0xd
	.long	0x3d8
	.long	.LLST2
	.long	.LVUS2
	.uleb128 0x31
	.long	.LASF88
	.byte	0x1
	.byte	0x74
	.byte	0xd
	.long	0x3d8
	.long	.LLST3
	.long	.LVUS3
	.uleb128 0x31
	.long	.LASF89
	.byte	0x1
	.byte	0x75
	.byte	0xb
	.long	0x2b3
	.long	.LLST4
	.long	.LVUS4
	.uleb128 0x31
	.long	.LASF90
	.byte	0x1
	.byte	0x77
	.byte	0xd
	.long	0x13aa
	.long	.LLST5
	.long	.LVUS5
	.uleb128 0x31
	.long	.LASF91
	.byte	0x1
	.byte	0x7c
	.byte	0xd
	.long	0x13aa
	.long	.LLST6
	.long	.LVUS6
	.uleb128 0x29
	.string	"ix0"
	.byte	0x1
	.byte	0x7d
	.byte	0xf
	.long	0x3f0
	.uleb128 0x29
	.string	"ix1"
	.byte	0x1
	.byte	0x7e
	.byte	0xf
	.long	0x3f0
	.uleb128 0x29
	.string	"iy0"
	.byte	0x1
	.byte	0x7f
	.byte	0xf
	.long	0x3f0
	.uleb128 0x29
	.string	"iy1"
	.byte	0x1
	.byte	0x80
	.byte	0xf
	.long	0x3f0
	.uleb128 0x29
	.string	"wx0"
	.byte	0x1
	.byte	0x82
	.byte	0xd
	.long	0x13aa
	.uleb128 0x29
	.string	"wx1"
	.byte	0x1
	.byte	0x83
	.byte	0xd
	.long	0x13aa
	.uleb128 0x29
	.string	"wy0"
	.byte	0x1
	.byte	0x84
	.byte	0xd
	.long	0x13aa
	.uleb128 0x29
	.string	"wy1"
	.byte	0x1
	.byte	0x85
	.byte	0xd
	.long	0x13aa
	.uleb128 0x31
	.long	.LASF79
	.byte	0x1
	.byte	0x94
	.byte	0xd
	.long	0x60a
	.long	.LLST7
	.long	.LVUS7
	.uleb128 0x32
	.long	.LASF80
	.byte	0x1
	.byte	0xa0
	.byte	0xf
	.long	0xc40
	.uleb128 0x33
	.string	"n"
	.byte	0x1
	.byte	0xb2
	.byte	0xf
	.long	0x2f7
	.long	.LLST8
	.long	.LVUS8
	.uleb128 0x34
	.quad	.LBB102
	.quad	.LBE102-.LBB102
	.long	0xda2
	.uleb128 0x33
	.string	"i"
	.byte	0x1
	.byte	0x78
	.byte	0xe
	.long	0x2f0
	.long	.LLST11
	.long	.LVUS11
	.byte	0
	.uleb128 0x35
	.long	.Ldebug_ranges0+0xc0
	.long	0xe01
	.uleb128 0x33
	.string	"i"
	.byte	0x1
	.byte	0x87
	.byte	0xe
	.long	0x2f0
	.long	.LLST12
	.long	.LVUS12
	.uleb128 0x36
	.long	0x45d
	.quad	.LBI104
	.value	.LVU112
	.quad	.LBB104
	.quad	.LBE104-.LBB104
	.byte	0x1
	.byte	0x88
	.byte	0x35
	.uleb128 0x37
	.long	0x46e
	.long	.LLST13
	.long	.LVUS13
	.uleb128 0x38
	.quad	.LVL41
	.long	0x5ef
	.uleb128 0x39
	.uleb128 0x1
	.byte	0x54
	.uleb128 0x1
	.byte	0x30
	.byte	0
	.byte	0
	.byte	0
	.uleb128 0x34
	.quad	.LBB107
	.quad	.LBE107-.LBB107
	.long	0xe71
	.uleb128 0x33
	.string	"i"
	.byte	0x1
	.byte	0xa1
	.byte	0xe
	.long	0x2f0
	.long	.LLST14
	.long	.LVUS14
	.uleb128 0x36
	.long	0x47b
	.quad	.LBI108
	.value	.LVU146
	.quad	.LBB108
	.quad	.LBE108-.LBB108
	.byte	0x1
	.byte	0xa2
	.byte	0x1a
	.uleb128 0x37
	.long	0x48d
	.long	.LLST15
	.long	.LVUS15
	.uleb128 0x38
	.quad	.LVL48
	.long	0x610
	.uleb128 0x39
	.uleb128 0x1
	.byte	0x54
	.uleb128 0x1
	.byte	0x30
	.uleb128 0x39
	.uleb128 0x1
	.byte	0x51
	.uleb128 0x1
	.byte	0x3a
	.byte	0
	.byte	0
	.byte	0
	.uleb128 0x3a
	.long	0x47b
	.quad	.LBI88
	.value	.LVU3
	.long	.Ldebug_ranges0+0x30
	.byte	0x1
	.byte	0x73
	.byte	0x1b
	.long	0xeb1
	.uleb128 0x37
	.long	0x48d
	.long	.LLST9
	.long	.LVUS9
	.uleb128 0x38
	.quad	.LVL5
	.long	0x610
	.uleb128 0x39
	.uleb128 0x1
	.byte	0x54
	.uleb128 0x1
	.byte	0x30
	.uleb128 0x39
	.uleb128 0x1
	.byte	0x51
	.uleb128 0x1
	.byte	0x3a
	.byte	0
	.byte	0
	.uleb128 0x3a
	.long	0x47b
	.quad	.LBI95
	.value	.LVU14
	.long	.Ldebug_ranges0+0x80
	.byte	0x1
	.byte	0x74
	.byte	0x1c
	.long	0xef1
	.uleb128 0x37
	.long	0x48d
	.long	.LLST10
	.long	.LVUS10
	.uleb128 0x38
	.quad	.LVL7
	.long	0x610
	.uleb128 0x39
	.uleb128 0x1
	.byte	0x54
	.uleb128 0x1
	.byte	0x30
	.uleb128 0x39
	.uleb128 0x1
	.byte	0x51
	.uleb128 0x1
	.byte	0x3a
	.byte	0
	.byte	0
	.uleb128 0x3a
	.long	0xbf0
	.quad	.LBI110
	.value	.LVU158
	.long	.Ldebug_ranges0+0xf0
	.byte	0x1
	.byte	0xb5
	.byte	0x2e
	.long	0x1258
	.uleb128 0x37
	.long	0xc35
	.long	.LLST16
	.long	.LVUS16
	.uleb128 0x3b
	.long	0xc29
	.uleb128 0x3b
	.long	0xc1d
	.uleb128 0x3c
	.long	0xbf0
	.quad	.LBI112
	.value	.LVU170
	.long	.Ldebug_ranges0+0x150
	.byte	0x1
	.byte	0x55
	.byte	0x6
	.uleb128 0x37
	.long	0xc35
	.long	.LLST17
	.long	.LVUS17
	.uleb128 0x3b
	.long	0xc29
	.uleb128 0x3b
	.long	0xc1d
	.uleb128 0x3d
	.long	0xbb0
	.quad	.LBI113
	.value	.LVU171
	.quad	.LBB113
	.quad	.LBE113-.LBB113
	.byte	0x1
	.byte	0x5f
	.byte	0x44
	.long	0x1087
	.uleb128 0x3b
	.long	0xbe3
	.uleb128 0x36
	.long	0xb29
	.quad	.LBI114
	.value	.LVU172
	.quad	.LBB114
	.quad	.LBE114-.LBB114
	.byte	0x1
	.byte	0x51
	.byte	0x38
	.uleb128 0x3b
	.long	0xb33
	.uleb128 0x3d
	.long	0x13b0
	.quad	.LBI115
	.value	.LVU173
	.quad	.LBB115
	.quad	.LBE115-.LBB115
	.byte	0x1
	.byte	0x43
	.byte	0x57
	.long	0xfcd
	.uleb128 0x3b
	.long	0x13c1
	.byte	0
	.uleb128 0x3d
	.long	0xab8
	.quad	.LBI117
	.value	.LVU180
	.quad	.LBB117
	.quad	.LBE117-.LBB117
	.byte	0x1
	.byte	0x44
	.byte	0x3f
	.long	0x1021
	.uleb128 0x3b
	.long	0xac2
	.uleb128 0x36
	.long	0x13b0
	.quad	.LBI118
	.value	.LVU181
	.quad	.LBB118
	.quad	.LBE118-.LBB118
	.byte	0x1
	.byte	0x4b
	.byte	0x57
	.uleb128 0x3b
	.long	0x13c1
	.byte	0
	.byte	0
	.uleb128 0x36
	.long	0xb29
	.quad	.LBI120
	.value	.LVU185
	.quad	.LBB120
	.quad	.LBE120-.LBB120
	.byte	0x1
	.byte	0x42
	.byte	0x16
	.uleb128 0x3b
	.long	0xb33
	.uleb128 0x3e
	.long	0xab8
	.quad	.LBB121
	.quad	.LBE121-.LBB121
	.byte	0x1
	.byte	0x44
	.byte	0x3f
	.uleb128 0x3b
	.long	0xac2
	.uleb128 0x3e
	.long	0x13b0
	.quad	.LBB122
	.quad	.LBE122-.LBB122
	.byte	0x1
	.byte	0x4b
	.byte	0x57
	.uleb128 0x3b
	.long	0x13c1
	.byte	0
	.byte	0
	.byte	0
	.byte	0
	.byte	0
	.uleb128 0x3f
	.long	0xb40
	.long	.Ldebug_ranges0+0x190
	.byte	0x1
	.byte	0x63
	.byte	0x2f
	.uleb128 0x3b
	.long	0xb81
	.uleb128 0x3b
	.long	0xb75
	.uleb128 0x3b
	.long	0xb69
	.uleb128 0x40
	.long	.Ldebug_ranges0+0x1c0
	.uleb128 0x41
	.long	0xb8b
	.uleb128 0x41
	.long	0xb97
	.uleb128 0x42
	.long	0xba3
	.long	.Ldebug_ranges0+0x1f0
	.uleb128 0x43
	.long	0xba4
	.long	.LLST18
	.long	.LVUS18
	.uleb128 0x3c
	.long	0xacf
	.quad	.LBI127
	.value	.LVU200
	.long	.Ldebug_ranges0+0x220
	.byte	0x1
	.byte	0x30
	.byte	0x53
	.uleb128 0x37
	.long	0xb1e
	.long	.LLST19
	.long	.LVUS19
	.uleb128 0x3b
	.long	0xb12
	.uleb128 0x3b
	.long	0xb06
	.uleb128 0x37
	.long	0xafa
	.long	.LLST20
	.long	.LVUS20
	.uleb128 0x3c
	.long	0xa3d
	.quad	.LBI128
	.value	.LVU201
	.long	.Ldebug_ranges0+0x2c0
	.byte	0x1
	.byte	0x26
	.byte	0x32
	.uleb128 0x37
	.long	0xa6b
	.long	.LLST21
	.long	.LVUS21
	.uleb128 0x3b
	.long	0xa5f
	.uleb128 0x3b
	.long	0xa53
	.uleb128 0x37
	.long	0xa47
	.long	.LLST22
	.long	.LVUS22
	.uleb128 0x40
	.long	.Ldebug_ranges0+0x2c0
	.uleb128 0x41
	.long	0xa75
	.uleb128 0x41
	.long	0xa80
	.uleb128 0x41
	.long	0xa8b
	.uleb128 0x41
	.long	0xa96
	.uleb128 0x43
	.long	0xaa1
	.long	.LLST23
	.long	.LVUS23
	.uleb128 0x43
	.long	0xaac
	.long	.LLST24
	.long	.LVUS24
	.uleb128 0x3a
	.long	0x9c2
	.quad	.LBI130
	.value	.LVU202
	.long	.Ldebug_ranges0+0x370
	.byte	0x1
	.byte	0x10
	.byte	0x43
	.long	0x11e1
	.uleb128 0x37
	.long	0x9f0
	.long	.LLST25
	.long	.LVUS25
	.uleb128 0x3b
	.long	0x9e4
	.uleb128 0x3b
	.long	0x9d8
	.uleb128 0x37
	.long	0x9cc
	.long	.LLST26
	.long	.LVUS26
	.uleb128 0x40
	.long	.Ldebug_ranges0+0x500
	.uleb128 0x41
	.long	0x9fa
	.uleb128 0x41
	.long	0xa05
	.uleb128 0x41
	.long	0xa10
	.uleb128 0x41
	.long	0xa1b
	.uleb128 0x43
	.long	0xa26
	.long	.LLST27
	.long	.LVUS27
	.uleb128 0x43
	.long	0xa31
	.long	.LLST28
	.long	.LVUS28
	.byte	0
	.byte	0
	.uleb128 0x3c
	.long	0x9c2
	.quad	.LBI148
	.value	.LVU207
	.long	.Ldebug_ranges0+0x610
	.byte	0x1
	.byte	0x11
	.byte	0x43
	.uleb128 0x37
	.long	0x9f0
	.long	.LLST29
	.long	.LVUS29
	.uleb128 0x3b
	.long	0x9e4
	.uleb128 0x3b
	.long	0x9d8
	.uleb128 0x37
	.long	0x9cc
	.long	.LLST30
	.long	.LVUS30
	.uleb128 0x40
	.long	.Ldebug_ranges0+0x780
	.uleb128 0x41
	.long	0x9fa
	.uleb128 0x41
	.long	0xa05
	.uleb128 0x41
	.long	0xa10
	.uleb128 0x41
	.long	0xa1b
	.uleb128 0x43
	.long	0xa26
	.long	.LLST31
	.long	.LVUS31
	.uleb128 0x43
	.long	0xa31
	.long	.LLST32
	.long	.LVUS32
	.byte	0
	.byte	0
	.byte	0
	.byte	0
	.byte	0
	.byte	0
	.byte	0
	.byte	0
	.byte	0
	.byte	0
	.uleb128 0x44
	.quad	.LVL12
	.long	0x13ce
	.uleb128 0x45
	.quad	.LVL15
	.long	0x13d7
	.long	0x1294
	.uleb128 0x39
	.uleb128 0x1
	.byte	0x55
	.uleb128 0x4
	.byte	0x77
	.sleb128 64
	.byte	0x6
	.uleb128 0x39
	.uleb128 0x1
	.byte	0x54
	.uleb128 0x1
	.byte	0x30
	.uleb128 0x39
	.uleb128 0x1
	.byte	0x51
	.uleb128 0xc
	.byte	0x7e
	.sleb128 -1
	.byte	0xc
	.long	0xffffffff
	.byte	0x1a
	.byte	0x32
	.byte	0x24
	.byte	0x23
	.uleb128 0x4
	.byte	0
	.uleb128 0x45
	.quad	.LVL16
	.long	0x13ce
	.long	0x12ac
	.uleb128 0x39
	.uleb128 0x1
	.byte	0x55
	.uleb128 0x2
	.byte	0x7e
	.sleb128 0
	.byte	0
	.uleb128 0x45
	.quad	.LVL18
	.long	0x13ce
	.long	0x12c4
	.uleb128 0x39
	.uleb128 0x1
	.byte	0x55
	.uleb128 0x2
	.byte	0x7e
	.sleb128 0
	.byte	0
	.uleb128 0x45
	.quad	.LVL20
	.long	0x13ce
	.long	0x12dc
	.uleb128 0x39
	.uleb128 0x1
	.byte	0x55
	.uleb128 0x2
	.byte	0x7e
	.sleb128 0
	.byte	0
	.uleb128 0x45
	.quad	.LVL22
	.long	0x13ce
	.long	0x12f4
	.uleb128 0x39
	.uleb128 0x1
	.byte	0x55
	.uleb128 0x2
	.byte	0x7e
	.sleb128 0
	.byte	0
	.uleb128 0x45
	.quad	.LVL24
	.long	0x13ce
	.long	0x130c
	.uleb128 0x39
	.uleb128 0x1
	.byte	0x55
	.uleb128 0x2
	.byte	0x7e
	.sleb128 0
	.byte	0
	.uleb128 0x45
	.quad	.LVL26
	.long	0x13ce
	.long	0x1324
	.uleb128 0x39
	.uleb128 0x1
	.byte	0x55
	.uleb128 0x2
	.byte	0x7e
	.sleb128 0
	.byte	0
	.uleb128 0x45
	.quad	.LVL28
	.long	0x13ce
	.long	0x133c
	.uleb128 0x39
	.uleb128 0x1
	.byte	0x55
	.uleb128 0x2
	.byte	0x7e
	.sleb128 0
	.byte	0
	.uleb128 0x45
	.quad	.LVL30
	.long	0x13ce
	.long	0x1354
	.uleb128 0x39
	.uleb128 0x1
	.byte	0x55
	.uleb128 0x2
	.byte	0x7e
	.sleb128 0
	.byte	0
	.uleb128 0x45
	.quad	.LVL32
	.long	0x13ce
	.long	0x136c
	.uleb128 0x39
	.uleb128 0x1
	.byte	0x55
	.uleb128 0x2
	.byte	0x7e
	.sleb128 0
	.byte	0
	.uleb128 0x45
	.quad	.LVL45
	.long	0x13ce
	.long	0x1384
	.uleb128 0x39
	.uleb128 0x1
	.byte	0x55
	.uleb128 0x2
	.byte	0x8
	.byte	0x50
	.byte	0
	.uleb128 0x45
	.quad	.LVL46
	.long	0x13ce
	.long	0x139c
	.uleb128 0x39
	.uleb128 0x1
	.byte	0x55
	.uleb128 0x2
	.byte	0x8
	.byte	0x50
	.byte	0
	.uleb128 0x44
	.quad	.LVL117
	.long	0x13e0
	.byte	0
	.uleb128 0x11
	.byte	0x8
	.long	0x2b3
	.uleb128 0x2a
	.long	.LASF92
	.byte	0x1
	.byte	0x35
	.byte	0x14
	.long	0x8c9
	.byte	0x3
	.long	0x13ce
	.uleb128 0x1a
	.long	.LASF80
	.byte	0x1
	.byte	0x35
	.byte	0x32
	.long	0x8d0
	.byte	0
	.uleb128 0x46
	.long	.LASF93
	.long	.LASF95
	.uleb128 0x46
	.long	.LASF94
	.long	.LASF96
	.uleb128 0x46
	.long	.LASF97
	.long	.LASF97
	.byte	0
	.section	.debug_abbrev,"",@progbits
.Ldebug_abbrev0:
	.uleb128 0x1
	.uleb128 0x11
	.byte	0x1
	.uleb128 0x25
	.uleb128 0xe
	.uleb128 0x13
	.uleb128 0xb
	.uleb128 0x3
	.uleb128 0xe
	.uleb128 0x1b
	.uleb128 0xe
	.uleb128 0x55
	.uleb128 0x17
	.uleb128 0x11
	.uleb128 0x1
	.uleb128 0x10
	.uleb128 0x17
	.byte	0
	.byte	0
	.uleb128 0x2
	.uleb128 0x39
	.byte	0x1
	.uleb128 0x3
	.uleb128 0x8
	.uleb128 0x3a
	.uleb128 0xb
	.uleb128 0x3b
	.uleb128 0xb
	.uleb128 0x1
	.uleb128 0x13
	.byte	0
	.byte	0
	.uleb128 0x3
	.uleb128 0x39
	.byte	0
	.uleb128 0x3
	.uleb128 0xe
	.uleb128 0x3a
	.uleb128 0xb
	.uleb128 0x3b
	.uleb128 0x5
	.uleb128 0x39
	.uleb128 0xb
	.uleb128 0x89
	.uleb128 0x19
	.byte	0
	.byte	0
	.uleb128 0x4
	.uleb128 0x3a
	.byte	0
	.uleb128 0x3a
	.uleb128 0xb
	.uleb128 0x3b
	.uleb128 0x5
	.uleb128 0x39
	.uleb128 0xb
	.uleb128 0x18
	.uleb128 0x13
	.byte	0
	.byte	0
	.uleb128 0x5
	.uleb128 0x8
	.byte	0
	.uleb128 0x3a
	.uleb128 0xb
	.uleb128 0x3b
	.uleb128 0xb
	.uleb128 0x39
	.uleb128 0xb
	.uleb128 0x18
	.uleb128 0x13
	.byte	0
	.byte	0
	.uleb128 0x6
	.uleb128 0x2e
	.byte	0x1
	.uleb128 0x3f
	.uleb128 0x19
	.uleb128 0x3
	.uleb128 0x8
	.uleb128 0x3a
	.uleb128 0xb
	.uleb128 0x3b
	.uleb128 0xb
	.uleb128 0x39
	.uleb128 0xb
	.uleb128 0x6e
	.uleb128 0xe
	.uleb128 0x49
	.uleb128 0x13
	.uleb128 0x3c
	.uleb128 0x19
	.uleb128 0x1
	.uleb128 0x13
	.byte	0
	.byte	0
	.uleb128 0x7
	.uleb128 0x5
	.byte	0
	.uleb128 0x49
	.uleb128 0x13
	.byte	0
	.byte	0
	.uleb128 0x8
	.uleb128 0x2e
	.byte	0x1
	.uleb128 0x3f
	.uleb128 0x19
	.uleb128 0x3
	.uleb128 0x8
	.uleb128 0x3a
	.uleb128 0xb
	.uleb128 0x3b
	.uleb128 0xb
	.uleb128 0x39
	.uleb128 0xb
	.uleb128 0x6e
	.uleb128 0xe
	.uleb128 0x49
	.uleb128 0x13
	.uleb128 0x3c
	.uleb128 0x19
	.byte	0
	.byte	0
	.uleb128 0x9
	.uleb128 0x39
	.byte	0x1
	.uleb128 0x3
	.uleb128 0xe
	.uleb128 0x3a
	.uleb128 0xb
	.uleb128 0x3b
	.uleb128 0x5
	.uleb128 0x39
	.uleb128 0xb
	.uleb128 0x1
	.uleb128 0x13
	.byte	0
	.byte	0
	.uleb128 0xa
	.uleb128 0x16
	.byte	0
	.uleb128 0x3
	.uleb128 0xe
	.uleb128 0x3a
	.uleb128 0xb
	.uleb128 0x3b
	.uleb128 0xb
	.uleb128 0x39
	.uleb128 0xb
	.uleb128 0x49
	.uleb128 0x13
	.byte	0
	.byte	0
	.uleb128 0xb
	.uleb128 0x24
	.byte	0
	.uleb128 0xb
	.uleb128 0xb
	.uleb128 0x3e
	.uleb128 0xb
	.uleb128 0x3
	.uleb128 0xe
	.byte	0
	.byte	0
	.uleb128 0xc
	.uleb128 0x13
	.byte	0x1
	.uleb128 0xb
	.uleb128 0xb
	.uleb128 0x3a
	.uleb128 0xb
	.uleb128 0x3b
	.uleb128 0xb
	.uleb128 0x39
	.uleb128 0xb
	.uleb128 0x6e
	.uleb128 0xe
	.uleb128 0x1
	.uleb128 0x13
	.byte	0
	.byte	0
	.uleb128 0xd
	.uleb128 0xd
	.byte	0
	.uleb128 0x3
	.uleb128 0xe
	.uleb128 0x3a
	.uleb128 0xb
	.uleb128 0x3b
	.uleb128 0xb
	.uleb128 0x39
	.uleb128 0xb
	.uleb128 0x49
	.uleb128 0x13
	.uleb128 0x38
	.uleb128 0xb
	.byte	0
	.byte	0
	.uleb128 0xe
	.uleb128 0xd
	.byte	0
	.uleb128 0x3
	.uleb128 0x8
	.uleb128 0x3a
	.uleb128 0xb
	.uleb128 0x3b
	.uleb128 0xb
	.uleb128 0x39
	.uleb128 0xb
	.uleb128 0x49
	.uleb128 0x13
	.uleb128 0x38
	.uleb128 0xb
	.byte	0
	.byte	0
	.uleb128 0xf
	.uleb128 0x24
	.byte	0
	.uleb128 0xb
	.uleb128 0xb
	.uleb128 0x3e
	.uleb128 0xb
	.uleb128 0x3
	.uleb128 0x8
	.byte	0
	.byte	0
	.uleb128 0x10
	.uleb128 0x26
	.byte	0
	.uleb128 0x49
	.uleb128 0x13
	.byte	0
	.byte	0
	.uleb128 0x11
	.uleb128 0xf
	.byte	0
	.uleb128 0xb
	.uleb128 0xb
	.uleb128 0x49
	.uleb128 0x13
	.byte	0
	.byte	0
	.uleb128 0x12
	.uleb128 0xf
	.byte	0
	.uleb128 0xb
	.uleb128 0xb
	.byte	0
	.byte	0
	.uleb128 0x13
	.uleb128 0x16
	.byte	0
	.uleb128 0x3
	.uleb128 0xe
	.uleb128 0x3a
	.uleb128 0xb
	.uleb128 0x3b
	.uleb128 0x5
	.uleb128 0x39
	.uleb128 0xb
	.uleb128 0x49
	.uleb128 0x13
	.byte	0
	.byte	0
	.uleb128 0x14
	.uleb128 0x15
	.byte	0x1
	.uleb128 0x49
	.uleb128 0x13
	.uleb128 0x1
	.uleb128 0x13
	.byte	0
	.byte	0
	.uleb128 0x15
	.uleb128 0x26
	.byte	0
	.byte	0
	.byte	0
	.uleb128 0x16
	.uleb128 0x2e
	.byte	0x1
	.uleb128 0x3f
	.uleb128 0x19
	.uleb128 0x3
	.uleb128 0xe
	.uleb128 0x3a
	.uleb128 0xb
	.uleb128 0x3b
	.uleb128 0x5
	.uleb128 0x39
	.uleb128 0xb
	.uleb128 0x49
	.uleb128 0x13
	.uleb128 0x3c
	.uleb128 0x19
	.uleb128 0x1
	.uleb128 0x13
	.byte	0
	.byte	0
	.uleb128 0x17
	.uleb128 0x15
	.byte	0
	.byte	0
	.byte	0
	.uleb128 0x18
	.uleb128 0x2e
	.byte	0x1
	.uleb128 0x3f
	.uleb128 0x19
	.uleb128 0x3
	.uleb128 0xe
	.uleb128 0x3a
	.uleb128 0xb
	.uleb128 0x3b
	.uleb128 0x5
	.uleb128 0x39
	.uleb128 0xb
	.uleb128 0x6e
	.uleb128 0xe
	.uleb128 0x49
	.uleb128 0x13
	.uleb128 0x3c
	.uleb128 0x19
	.uleb128 0x1
	.uleb128 0x13
	.byte	0
	.byte	0
	.uleb128 0x19
	.uleb128 0x2e
	.byte	0x1
	.uleb128 0x3f
	.uleb128 0x19
	.uleb128 0x3
	.uleb128 0xe
	.uleb128 0x3a
	.uleb128 0xb
	.uleb128 0x3b
	.uleb128 0xb
	.uleb128 0x39
	.uleb128 0xb
	.uleb128 0x49
	.uleb128 0x13
	.uleb128 0x20
	.uleb128 0xb
	.uleb128 0x1
	.uleb128 0x13
	.byte	0
	.byte	0
	.uleb128 0x1a
	.uleb128 0x5
	.byte	0
	.uleb128 0x3
	.uleb128 0xe
	.uleb128 0x3a
	.uleb128 0xb
	.uleb128 0x3b
	.uleb128 0xb
	.uleb128 0x39
	.uleb128 0xb
	.uleb128 0x49
	.uleb128 0x13
	.byte	0
	.byte	0
	.uleb128 0x1b
	.uleb128 0x2e
	.byte	0x1
	.uleb128 0x3f
	.uleb128 0x19
	.uleb128 0x3
	.uleb128 0xe
	.uleb128 0x3a
	.uleb128 0xb
	.uleb128 0x3b
	.uleb128 0x5
	.uleb128 0x39
	.uleb128 0xb
	.uleb128 0x49
	.uleb128 0x13
	.uleb128 0x20
	.uleb128 0xb
	.uleb128 0x1
	.uleb128 0x13
	.byte	0
	.byte	0
	.uleb128 0x1c
	.uleb128 0x5
	.byte	0
	.uleb128 0x3
	.uleb128 0xe
	.uleb128 0x3a
	.uleb128 0xb
	.uleb128 0x3b
	.uleb128 0x5
	.uleb128 0x39
	.uleb128 0xb
	.uleb128 0x49
	.uleb128 0x13
	.byte	0
	.byte	0
	.uleb128 0x1d
	.uleb128 0x2e
	.byte	0x1
	.uleb128 0x3f
	.uleb128 0x19
	.uleb128 0x3
	.uleb128 0xe
	.uleb128 0x3a
	.uleb128 0xb
	.uleb128 0x3b
	.uleb128 0xb
	.uleb128 0x39
	.uleb128 0xb
	.uleb128 0x49
	.uleb128 0x13
	.uleb128 0x3c
	.uleb128 0x19
	.uleb128 0x1
	.uleb128 0x13
	.byte	0
	.byte	0
	.uleb128 0x1e
	.uleb128 0x2e
	.byte	0x1
	.uleb128 0x3f
	.uleb128 0x19
	.uleb128 0x3
	.uleb128 0x8
	.uleb128 0x3a
	.uleb128 0xb
	.uleb128 0x3b
	.uleb128 0x5
	.uleb128 0x39
	.uleb128 0xb
	.uleb128 0x49
	.uleb128 0x13
	.uleb128 0x3c
	.uleb128 0x19
	.uleb128 0x1
	.uleb128 0x13
	.byte	0
	.byte	0
	.uleb128 0x1f
	.uleb128 0x2e
	.byte	0x1
	.uleb128 0x3f
	.uleb128 0x19
	.uleb128 0x3
	.uleb128 0xe
	.uleb128 0x3a
	.uleb128 0xb
	.uleb128 0x3b
	.uleb128 0x5
	.uleb128 0x39
	.uleb128 0xb
	.uleb128 0x3c
	.uleb128 0x19
	.uleb128 0x1
	.uleb128 0x13
	.byte	0
	.byte	0
	.uleb128 0x20
	.uleb128 0x2e
	.byte	0x1
	.uleb128 0x3f
	.uleb128 0x19
	.uleb128 0x3
	.uleb128 0xe
	.uleb128 0x3a
	.uleb128 0xb
	.uleb128 0x3b
	.uleb128 0x5
	.uleb128 0x39
	.uleb128 0xb
	.uleb128 0x87
	.uleb128 0x19
	.uleb128 0x3c
	.uleb128 0x19
	.uleb128 0x1
	.uleb128 0x13
	.byte	0
	.byte	0
	.uleb128 0x21
	.uleb128 0x2e
	.byte	0
	.uleb128 0x3f
	.uleb128 0x19
	.uleb128 0x3
	.uleb128 0xe
	.uleb128 0x3a
	.uleb128 0xb
	.uleb128 0x3b
	.uleb128 0x5
	.uleb128 0x39
	.uleb128 0xb
	.uleb128 0x49
	.uleb128 0x13
	.uleb128 0x3c
	.uleb128 0x19
	.byte	0
	.byte	0
	.uleb128 0x22
	.uleb128 0x13
	.byte	0x1
	.uleb128 0x3
	.uleb128 0xe
	.uleb128 0xb
	.uleb128 0xb
	.uleb128 0x3a
	.uleb128 0xb
	.uleb128 0x3b
	.uleb128 0xb
	.uleb128 0x39
	.uleb128 0xb
	.uleb128 0x1
	.uleb128 0x13
	.byte	0
	.byte	0
	.uleb128 0x23
	.uleb128 0x2e
	.byte	0x1
	.uleb128 0x3f
	.uleb128 0x19
	.uleb128 0x3
	.uleb128 0xe
	.uleb128 0x3a
	.uleb128 0xb
	.uleb128 0x3b
	.uleb128 0xb
	.uleb128 0x39
	.uleb128 0xb
	.uleb128 0x6e
	.uleb128 0xe
	.uleb128 0x49
	.uleb128 0x13
	.uleb128 0x3c
	.uleb128 0x19
	.uleb128 0x1
	.uleb128 0x13
	.byte	0
	.byte	0
	.uleb128 0x24
	.uleb128 0x30
	.byte	0
	.uleb128 0x3
	.uleb128 0x8
	.uleb128 0x49
	.uleb128 0x13
	.uleb128 0x1c
	.uleb128 0xb
	.byte	0
	.byte	0
	.uleb128 0x25
	.uleb128 0x30
	.byte	0
	.uleb128 0x3
	.uleb128 0x8
	.uleb128 0x49
	.uleb128 0x13
	.uleb128 0x1c
	.uleb128 0xd
	.byte	0
	.byte	0
	.uleb128 0x26
	.uleb128 0x2f
	.byte	0
	.uleb128 0x3
	.uleb128 0xe
	.uleb128 0x49
	.uleb128 0x13
	.byte	0
	.byte	0
	.uleb128 0x27
	.uleb128 0x2e
	.byte	0x1
	.uleb128 0x47
	.uleb128 0x13
	.uleb128 0x20
	.uleb128 0xb
	.uleb128 0x1
	.uleb128 0x13
	.byte	0
	.byte	0
	.uleb128 0x28
	.uleb128 0x5
	.byte	0
	.uleb128 0x3
	.uleb128 0x8
	.uleb128 0x3a
	.uleb128 0xb
	.uleb128 0x3b
	.uleb128 0xb
	.uleb128 0x39
	.uleb128 0xb
	.uleb128 0x49
	.uleb128 0x13
	.byte	0
	.byte	0
	.uleb128 0x29
	.uleb128 0x34
	.byte	0
	.uleb128 0x3
	.uleb128 0x8
	.uleb128 0x3a
	.uleb128 0xb
	.uleb128 0x3b
	.uleb128 0xb
	.uleb128 0x39
	.uleb128 0xb
	.uleb128 0x49
	.uleb128 0x13
	.byte	0
	.byte	0
	.uleb128 0x2a
	.uleb128 0x2e
	.byte	0x1
	.uleb128 0x3
	.uleb128 0xe
	.uleb128 0x3a
	.uleb128 0xb
	.uleb128 0x3b
	.uleb128 0xb
	.uleb128 0x39
	.uleb128 0xb
	.uleb128 0x49
	.uleb128 0x13
	.uleb128 0x20
	.uleb128 0xb
	.uleb128 0x1
	.uleb128 0x13
	.byte	0
	.byte	0
	.uleb128 0x2b
	.uleb128 0x2e
	.byte	0x1
	.uleb128 0x3
	.uleb128 0xe
	.uleb128 0x3a
	.uleb128 0xb
	.uleb128 0x3b
	.uleb128 0xb
	.uleb128 0x39
	.uleb128 0xb
	.uleb128 0x20
	.uleb128 0xb
	.uleb128 0x1
	.uleb128 0x13
	.byte	0
	.byte	0
	.uleb128 0x2c
	.uleb128 0x30
	.byte	0
	.uleb128 0x3
	.uleb128 0xe
	.uleb128 0x49
	.uleb128 0x13
	.uleb128 0x1c
	.uleb128 0xb
	.byte	0
	.byte	0
	.uleb128 0x2d
	.uleb128 0xb
	.byte	0x1
	.byte	0
	.byte	0
	.uleb128 0x2e
	.uleb128 0x2e
	.byte	0x1
	.uleb128 0x3f
	.uleb128 0x19
	.uleb128 0x3
	.uleb128 0xe
	.uleb128 0x3a
	.uleb128 0xb
	.uleb128 0x3b
	.uleb128 0xb
	.uleb128 0x39
	.uleb128 0xb
	.uleb128 0x6e
	.uleb128 0xe
	.uleb128 0x20
	.uleb128 0xb
	.uleb128 0x1
	.uleb128 0x13
	.byte	0
	.byte	0
	.uleb128 0x2f
	.uleb128 0x2e
	.byte	0x1
	.uleb128 0x3f
	.uleb128 0x19
	.uleb128 0x3
	.uleb128 0xe
	.uleb128 0x3a
	.uleb128 0xb
	.uleb128 0x3b
	.uleb128 0xb
	.uleb128 0x39
	.uleb128 0xb
	.uleb128 0x49
	.uleb128 0x13
	.uleb128 0x55
	.uleb128 0x17
	.uleb128 0x40
	.uleb128 0x18
	.uleb128 0x2117
	.uleb128 0x19
	.uleb128 0x1
	.uleb128 0x13
	.byte	0
	.byte	0
	.uleb128 0x30
	.uleb128 0x5
	.byte	0
	.uleb128 0x3
	.uleb128 0xe
	.uleb128 0x3a
	.uleb128 0xb
	.uleb128 0x3b
	.uleb128 0xb
	.uleb128 0x39
	.uleb128 0xb
	.uleb128 0x49
	.uleb128 0x13
	.uleb128 0x2
	.uleb128 0x17
	.uleb128 0x2137
	.uleb128 0x17
	.byte	0
	.byte	0
	.uleb128 0x31
	.uleb128 0x34
	.byte	0
	.uleb128 0x3
	.uleb128 0xe
	.uleb128 0x3a
	.uleb128 0xb
	.uleb128 0x3b
	.uleb128 0xb
	.uleb128 0x39
	.uleb128 0xb
	.uleb128 0x49
	.uleb128 0x13
	.uleb128 0x2
	.uleb128 0x17
	.uleb128 0x2137
	.uleb128 0x17
	.byte	0
	.byte	0
	.uleb128 0x32
	.uleb128 0x34
	.byte	0
	.uleb128 0x3
	.uleb128 0xe
	.uleb128 0x3a
	.uleb128 0xb
	.uleb128 0x3b
	.uleb128 0xb
	.uleb128 0x39
	.uleb128 0xb
	.uleb128 0x49
	.uleb128 0x13
	.byte	0
	.byte	0
	.uleb128 0x33
	.uleb128 0x34
	.byte	0
	.uleb128 0x3
	.uleb128 0x8
	.uleb128 0x3a
	.uleb128 0xb
	.uleb128 0x3b
	.uleb128 0xb
	.uleb128 0x39
	.uleb128 0xb
	.uleb128 0x49
	.uleb128 0x13
	.uleb128 0x2
	.uleb128 0x17
	.uleb128 0x2137
	.uleb128 0x17
	.byte	0
	.byte	0
	.uleb128 0x34
	.uleb128 0xb
	.byte	0x1
	.uleb128 0x11
	.uleb128 0x1
	.uleb128 0x12
	.uleb128 0x7
	.uleb128 0x1
	.uleb128 0x13
	.byte	0
	.byte	0
	.uleb128 0x35
	.uleb128 0xb
	.byte	0x1
	.uleb128 0x55
	.uleb128 0x17
	.uleb128 0x1
	.uleb128 0x13
	.byte	0
	.byte	0
	.uleb128 0x36
	.uleb128 0x1d
	.byte	0x1
	.uleb128 0x31
	.uleb128 0x13
	.uleb128 0x52
	.uleb128 0x1
	.uleb128 0x2138
	.uleb128 0x5
	.uleb128 0x11
	.uleb128 0x1
	.uleb128 0x12
	.uleb128 0x7
	.uleb128 0x58
	.uleb128 0xb
	.uleb128 0x59
	.uleb128 0xb
	.uleb128 0x57
	.uleb128 0xb
	.byte	0
	.byte	0
	.uleb128 0x37
	.uleb128 0x5
	.byte	0
	.uleb128 0x31
	.uleb128 0x13
	.uleb128 0x2
	.uleb128 0x17
	.uleb128 0x2137
	.uleb128 0x17
	.byte	0
	.byte	0
	.uleb128 0x38
	.uleb128 0x4109
	.byte	0x1
	.uleb128 0x11
	.uleb128 0x1
	.uleb128 0x31
	.uleb128 0x13
	.byte	0
	.byte	0
	.uleb128 0x39
	.uleb128 0x410a
	.byte	0
	.uleb128 0x2
	.uleb128 0x18
	.uleb128 0x2111
	.uleb128 0x18
	.byte	0
	.byte	0
	.uleb128 0x3a
	.uleb128 0x1d
	.byte	0x1
	.uleb128 0x31
	.uleb128 0x13
	.uleb128 0x52
	.uleb128 0x1
	.uleb128 0x2138
	.uleb128 0x5
	.uleb128 0x55
	.uleb128 0x17
	.uleb128 0x58
	.uleb128 0xb
	.uleb128 0x59
	.uleb128 0xb
	.uleb128 0x57
	.uleb128 0xb
	.uleb128 0x1
	.uleb128 0x13
	.byte	0
	.byte	0
	.uleb128 0x3b
	.uleb128 0x5
	.byte	0
	.uleb128 0x31
	.uleb128 0x13
	.byte	0
	.byte	0
	.uleb128 0x3c
	.uleb128 0x1d
	.byte	0x1
	.uleb128 0x31
	.uleb128 0x13
	.uleb128 0x52
	.uleb128 0x1
	.uleb128 0x2138
	.uleb128 0x5
	.uleb128 0x55
	.uleb128 0x17
	.uleb128 0x58
	.uleb128 0xb
	.uleb128 0x59
	.uleb128 0xb
	.uleb128 0x57
	.uleb128 0xb
	.byte	0
	.byte	0
	.uleb128 0x3d
	.uleb128 0x1d
	.byte	0x1
	.uleb128 0x31
	.uleb128 0x13
	.uleb128 0x52
	.uleb128 0x1
	.uleb128 0x2138
	.uleb128 0x5
	.uleb128 0x11
	.uleb128 0x1
	.uleb128 0x12
	.uleb128 0x7
	.uleb128 0x58
	.uleb128 0xb
	.uleb128 0x59
	.uleb128 0xb
	.uleb128 0x57
	.uleb128 0xb
	.uleb128 0x1
	.uleb128 0x13
	.byte	0
	.byte	0
	.uleb128 0x3e
	.uleb128 0x1d
	.byte	0x1
	.uleb128 0x31
	.uleb128 0x13
	.uleb128 0x11
	.uleb128 0x1
	.uleb128 0x12
	.uleb128 0x7
	.uleb128 0x58
	.uleb128 0xb
	.uleb128 0x59
	.uleb128 0xb
	.uleb128 0x57
	.uleb128 0xb
	.byte	0
	.byte	0
	.uleb128 0x3f
	.uleb128 0x1d
	.byte	0x1
	.uleb128 0x31
	.uleb128 0x13
	.uleb128 0x55
	.uleb128 0x17
	.uleb128 0x58
	.uleb128 0xb
	.uleb128 0x59
	.uleb128 0xb
	.uleb128 0x57
	.uleb128 0xb
	.byte	0
	.byte	0
	.uleb128 0x40
	.uleb128 0xb
	.byte	0x1
	.uleb128 0x55
	.uleb128 0x17
	.byte	0
	.byte	0
	.uleb128 0x41
	.uleb128 0x34
	.byte	0
	.uleb128 0x31
	.uleb128 0x13
	.byte	0
	.byte	0
	.uleb128 0x42
	.uleb128 0xb
	.byte	0x1
	.uleb128 0x31
	.uleb128 0x13
	.uleb128 0x55
	.uleb128 0x17
	.byte	0
	.byte	0
	.uleb128 0x43
	.uleb128 0x34
	.byte	0
	.uleb128 0x31
	.uleb128 0x13
	.uleb128 0x2
	.uleb128 0x17
	.uleb128 0x2137
	.uleb128 0x17
	.byte	0
	.byte	0
	.uleb128 0x44
	.uleb128 0x4109
	.byte	0
	.uleb128 0x11
	.uleb128 0x1
	.uleb128 0x31
	.uleb128 0x13
	.byte	0
	.byte	0
	.uleb128 0x45
	.uleb128 0x4109
	.byte	0x1
	.uleb128 0x11
	.uleb128 0x1
	.uleb128 0x31
	.uleb128 0x13
	.uleb128 0x1
	.uleb128 0x13
	.byte	0
	.byte	0
	.uleb128 0x46
	.uleb128 0x2e
	.byte	0
	.uleb128 0x3f
	.uleb128 0x19
	.uleb128 0x3c
	.uleb128 0x19
	.uleb128 0x6e
	.uleb128 0xe
	.uleb128 0x3
	.uleb128 0xe
	.byte	0
	.byte	0
	.byte	0
	.section	.debug_loc,"",@progbits
.Ldebug_loc0:
.LVUS0:
	.uleb128 0
	.uleb128 .LVU10
	.uleb128 .LVU10
	.uleb128 .LVU165
	.uleb128 .LVU165
	.uleb128 .LVU169
	.uleb128 .LVU169
	.uleb128 .LVU170
	.uleb128 .LVU170
	.uleb128 0
	.uleb128 0
	.uleb128 0
.LLST0:
	.quad	.LVL0
	.quad	.LVL3
	.value	0x1
	.byte	0x55
	.quad	.LVL3
	.quad	.LVL51
	.value	0x2
	.byte	0x77
	.sleb128 12
	.quad	.LVL51
	.quad	.LVL53
	.value	0x8
	.byte	0x76
	.sleb128 -40
	.byte	0x9
	.byte	0xe0
	.byte	0x1a
	.byte	0x8
	.byte	0xb4
	.byte	0x1c
	.quad	.LVL53
	.quad	.LVL54
	.value	0x8
	.byte	0x77
	.sleb128 -48
	.byte	0x9
	.byte	0xe0
	.byte	0x1a
	.byte	0x8
	.byte	0xb4
	.byte	0x1c
	.quad	.LVL54
	.quad	.LHOTE1
	.value	0x2
	.byte	0x77
	.sleb128 12
	.quad	.LFSB35
	.quad	.LCOLDE1
	.value	0x2
	.byte	0x77
	.sleb128 12
	.quad	0
	.quad	0
.LVUS1:
	.uleb128 0
	.uleb128 .LVU11
	.uleb128 .LVU11
	.uleb128 .LVU79
	.uleb128 .LVU79
	.uleb128 .LVU80
	.uleb128 .LVU80
	.uleb128 .LVU355
	.uleb128 .LVU355
	.uleb128 0
	.uleb128 0
	.uleb128 0
.LLST1:
	.quad	.LVL0
	.quad	.LVL4
	.value	0x1
	.byte	0x54
	.quad	.LVL4
	.quad	.LVL35
	.value	0x1
	.byte	0x5c
	.quad	.LVL35
	.quad	.LVL36
	.value	0x1
	.byte	0x5b
	.quad	.LVL36
	.quad	.LVL116
	.value	0x4
	.byte	0xf3
	.uleb128 0x1
	.byte	0x54
	.byte	0x9f
	.quad	.LVL116
	.quad	.LHOTE1
	.value	0x1
	.byte	0x5c
	.quad	.LFSB35
	.quad	.LCOLDE1
	.value	0x1
	.byte	0x5c
	.quad	0
	.quad	0
.LVUS2:
	.uleb128 .LVU12
	.uleb128 .LVU19
	.uleb128 .LVU19
	.uleb128 .LVU43
	.uleb128 .LVU43
	.uleb128 .LVU78
	.uleb128 .LVU355
	.uleb128 0
	.uleb128 0
	.uleb128 0
.LLST2:
	.quad	.LVL6
	.quad	.LVL8
	.value	0x9
	.byte	0x7d
	.sleb128 0
	.byte	0x8
	.byte	0x20
	.byte	0x24
	.byte	0x8
	.byte	0x20
	.byte	0x26
	.byte	0x9f
	.quad	.LVL8
	.quad	.LVL17
	.value	0x1
	.byte	0x53
	.quad	.LVL17
	.quad	.LVL34
	.value	0x9
	.byte	0x7d
	.sleb128 0
	.byte	0x8
	.byte	0x20
	.byte	0x24
	.byte	0x8
	.byte	0x20
	.byte	0x26
	.byte	0x9f
	.quad	.LVL116
	.quad	.LHOTE1
	.value	0x1
	.byte	0x53
	.quad	.LFSB35
	.quad	.LCOLDE1
	.value	0x1
	.byte	0x53
	.quad	0
	.quad	0
.LVUS3:
	.uleb128 .LVU22
	.uleb128 .LVU31
.LLST3:
	.quad	.LVL9
	.quad	.LVL11
	.value	0x1
	.byte	0x55
	.quad	0
	.quad	0
.LVUS4:
	.uleb128 .LVU28
	.uleb128 .LVU32
	.uleb128 .LVU32
	.uleb128 .LVU120
	.uleb128 .LVU355
	.uleb128 0
	.uleb128 0
	.uleb128 0
.LLST4:
	.quad	.LVL10
	.quad	.LVL12-1
	.value	0x1
	.byte	0x61
	.quad	.LVL12-1
	.quad	.LVL44
	.value	0x3
	.byte	0x77
	.sleb128 128
	.quad	.LVL116
	.quad	.LHOTE1
	.value	0x3
	.byte	0x77
	.sleb128 128
	.quad	.LFSB35
	.quad	.LCOLDE1
	.value	0x3
	.byte	0x77
	.sleb128 128
	.quad	0
	.quad	0
.LVUS5:
	.uleb128 .LVU33
	.uleb128 .LVU36
	.uleb128 .LVU36
	.uleb128 .LVU37
	.uleb128 .LVU37
	.uleb128 .LVU165
	.uleb128 .LVU165
	.uleb128 .LVU169
	.uleb128 .LVU169
	.uleb128 .LVU170
	.uleb128 .LVU170
	.uleb128 .LVU355
.LLST5:
	.quad	.LVL13
	.quad	.LVL14
	.value	0x1
	.byte	0x50
	.quad	.LVL14
	.quad	.LVL15-1
	.value	0x1
	.byte	0x55
	.quad	.LVL15-1
	.quad	.LVL51
	.value	0x3
	.byte	0x77
	.sleb128 64
	.quad	.LVL51
	.quad	.LVL53
	.value	0x8
	.byte	0x76
	.sleb128 -40
	.byte	0x9
	.byte	0xe0
	.byte	0x1a
	.byte	0x8
	.byte	0x80
	.byte	0x1c
	.quad	.LVL53
	.quad	.LVL54
	.value	0x8
	.byte	0x77
	.sleb128 -48
	.byte	0x9
	.byte	0xe0
	.byte	0x1a
	.byte	0x8
	.byte	0x80
	.byte	0x1c
	.quad	.LVL54
	.quad	.LVL116
	.value	0x3
	.byte	0x77
	.sleb128 64
	.quad	0
	.quad	0
.LVUS6:
	.uleb128 .LVU43
	.uleb128 .LVU45
	.uleb128 .LVU45
	.uleb128 .LVU166
	.uleb128 .LVU170
	.uleb128 .LVU355
.LLST6:
	.quad	.LVL17
	.quad	.LVL18-1
	.value	0x1
	.byte	0x50
	.quad	.LVL18-1
	.quad	.LVL52
	.value	0x1
	.byte	0x53
	.quad	.LVL54
	.quad	.LVL116
	.value	0x1
	.byte	0x53
	.quad	0
	.quad	0
.LVUS7:
	.uleb128 .LVU122
	.uleb128 .LVU142
.LLST7:
	.quad	.LVL45
	.quad	.LVL46-1
	.value	0x1
	.byte	0x50
	.quad	0
	.quad	0
.LVUS8:
	.uleb128 .LVU157
	.uleb128 .LVU165
	.uleb128 .LVU165
	.uleb128 .LVU169
	.uleb128 .LVU169
	.uleb128 .LVU170
	.uleb128 .LVU170
	.uleb128 .LVU355
.LLST8:
	.quad	.LVL49
	.quad	.LVL51
	.value	0x2
	.byte	0x77
	.sleb128 12
	.quad	.LVL51
	.quad	.LVL53
	.value	0x8
	.byte	0x76
	.sleb128 -40
	.byte	0x9
	.byte	0xe0
	.byte	0x1a
	.byte	0x8
	.byte	0xb4
	.byte	0x1c
	.quad	.LVL53
	.quad	.LVL54
	.value	0x8
	.byte	0x77
	.sleb128 -48
	.byte	0x9
	.byte	0xe0
	.byte	0x1a
	.byte	0x8
	.byte	0xb4
	.byte	0x1c
	.quad	.LVL54
	.quad	.LVL116
	.value	0x2
	.byte	0x77
	.sleb128 12
	.quad	0
	.quad	0
.LVUS11:
	.uleb128 .LVU34
	.uleb128 .LVU37
.LLST11:
	.quad	.LVL13
	.quad	.LVL15
	.value	0x2
	.byte	0x30
	.byte	0x9f
	.quad	0
	.quad	0
.LVUS12:
	.uleb128 .LVU76
	.uleb128 .LVU80
	.uleb128 .LVU80
	.uleb128 .LVU106
	.uleb128 .LVU106
	.uleb128 .LVU108
	.uleb128 .LVU109
	.uleb128 .LVU117
	.uleb128 .LVU117
	.uleb128 .LVU118
.LLST12:
	.quad	.LVL33
	.quad	.LVL36
	.value	0x2
	.byte	0x30
	.byte	0x9f
	.quad	.LVL36
	.quad	.LVL37
	.value	0x1
	.byte	0x5d
	.quad	.LVL37
	.quad	.LVL38
	.value	0x3
	.byte	0x7d
	.sleb128 1
	.byte	0x9f
	.quad	.LVL39
	.quad	.LVL42
	.value	0x1
	.byte	0x5d
	.quad	.LVL42
	.quad	.LVL43
	.value	0x3
	.byte	0x7d
	.sleb128 1
	.byte	0x9f
	.quad	0
	.quad	0
.LVUS13:
	.uleb128 .LVU112
	.uleb128 .LVU115
.LLST13:
	.quad	.LVL40
	.quad	.LVL41-1
	.value	0x2
	.byte	0x7b
	.sleb128 24
	.quad	0
	.quad	0
.LVUS14:
	.uleb128 .LVU144
	.uleb128 .LVU145
.LLST14:
	.quad	.LVL47
	.quad	.LVL47
	.value	0x2
	.byte	0x30
	.byte	0x9f
	.quad	0
	.quad	0
.LVUS15:
	.uleb128 .LVU146
	.uleb128 .LVU149
.LLST15:
	.quad	.LVL47
	.quad	.LVL48-1
	.value	0x7
	.byte	0x7c
	.sleb128 0
	.byte	0x7e
	.sleb128 0
	.byte	0x22
	.byte	0x23
	.uleb128 0x20
	.quad	0
	.quad	0
.LVUS9:
	.uleb128 .LVU3
	.uleb128 .LVU6
.LLST9:
	.quad	.LVL1
	.quad	.LVL2
	.value	0x2
	.byte	0x74
	.sleb128 8
	.quad	0
	.quad	0
.LVUS10:
	.uleb128 .LVU14
	.uleb128 .LVU17
.LLST10:
	.quad	.LVL6
	.quad	.LVL7-1
	.value	0x1
	.byte	0x55
	.quad	0
	.quad	0
.LVUS16:
	.uleb128 .LVU158
	.uleb128 .LVU160
	.uleb128 .LVU170
	.uleb128 .LVU355
.LLST16:
	.quad	.LVL49
	.quad	.LVL50
	.value	0xb
	.byte	0x77
	.sleb128 12
	.byte	0x94
	.byte	0x4
	.byte	0x8
	.byte	0x20
	.byte	0x24
	.byte	0x8
	.byte	0x20
	.byte	0x26
	.byte	0x9f
	.quad	.LVL54
	.quad	.LVL116
	.value	0xb
	.byte	0x77
	.sleb128 12
	.byte	0x94
	.byte	0x4
	.byte	0x8
	.byte	0x20
	.byte	0x24
	.byte	0x8
	.byte	0x20
	.byte	0x26
	.byte	0x9f
	.quad	0
	.quad	0
.LVUS17:
	.uleb128 .LVU170
	.uleb128 .LVU355
.LLST17:
	.quad	.LVL54
	.quad	.LVL116
	.value	0xb
	.byte	0x77
	.sleb128 12
	.byte	0x94
	.byte	0x4
	.byte	0x8
	.byte	0x20
	.byte	0x24
	.byte	0x8
	.byte	0x20
	.byte	0x26
	.byte	0x9f
	.quad	0
	.quad	0
.LVUS18:
	.uleb128 .LVU191
	.uleb128 .LVU199
	.uleb128 .LVU215
	.uleb128 .LVU236
	.uleb128 .LVU236
	.uleb128 .LVU238
	.uleb128 .LVU238
	.uleb128 .LVU255
	.uleb128 .LVU255
	.uleb128 .LVU257
	.uleb128 .LVU257
	.uleb128 .LVU274
	.uleb128 .LVU274
	.uleb128 .LVU276
	.uleb128 .LVU276
	.uleb128 .LVU293
	.uleb128 .LVU293
	.uleb128 .LVU295
	.uleb128 .LVU295
	.uleb128 .LVU312
	.uleb128 .LVU312
	.uleb128 .LVU314
	.uleb128 .LVU314
	.uleb128 .LVU315
	.uleb128 .LVU315
	.uleb128 .LVU332
.LLST18:
	.quad	.LVL57
	.quad	.LVL58
	.value	0x2
	.byte	0x30
	.byte	0x9f
	.quad	.LVL60
	.quad	.LVL67
	.value	0x1
	.byte	0x50
	.quad	.LVL67
	.quad	.LVL68
	.value	0x1
	.byte	0x59
	.quad	.LVL68
	.quad	.LVL75
	.value	0x3
	.byte	0x70
	.sleb128 1
	.byte	0x9f
	.quad	.LVL75
	.quad	.LVL76
	.value	0x1
	.byte	0x59
	.quad	.LVL76
	.quad	.LVL83
	.value	0x3
	.byte	0x70
	.sleb128 2
	.byte	0x9f
	.quad	.LVL83
	.quad	.LVL84
	.value	0x1
	.byte	0x59
	.quad	.LVL84
	.quad	.LVL91
	.value	0x3
	.byte	0x70
	.sleb128 3
	.byte	0x9f
	.quad	.LVL91
	.quad	.LVL92
	.value	0x1
	.byte	0x59
	.quad	.LVL92
	.quad	.LVL99
	.value	0x3
	.byte	0x70
	.sleb128 4
	.byte	0x9f
	.quad	.LVL99
	.quad	.LVL100
	.value	0x1
	.byte	0x59
	.quad	.LVL100
	.quad	.LVL101
	.value	0x3
	.byte	0x70
	.sleb128 5
	.byte	0x9f
	.quad	.LVL101
	.quad	.LVL108
	.value	0x3
	.byte	0x70
	.sleb128 -1
	.byte	0x9f
	.quad	0
	.quad	0
.LVUS19:
	.uleb128 .LVU218
	.uleb128 .LVU233
	.uleb128 .LVU239
	.uleb128 .LVU252
	.uleb128 .LVU258
	.uleb128 .LVU271
	.uleb128 .LVU277
	.uleb128 .LVU290
	.uleb128 .LVU296
	.uleb128 .LVU309
	.uleb128 .LVU316
	.uleb128 .LVU329
.LLST19:
	.quad	.LVL61
	.quad	.LVL66
	.value	0x1
	.byte	0x50
	.quad	.LVL69
	.quad	.LVL74
	.value	0x3
	.byte	0x70
	.sleb128 1
	.byte	0x9f
	.quad	.LVL77
	.quad	.LVL82
	.value	0x3
	.byte	0x70
	.sleb128 2
	.byte	0x9f
	.quad	.LVL85
	.quad	.LVL90
	.value	0x3
	.byte	0x70
	.sleb128 3
	.byte	0x9f
	.quad	.LVL93
	.quad	.LVL98
	.value	0x3
	.byte	0x70
	.sleb128 4
	.byte	0x9f
	.quad	.LVL102
	.quad	.LVL107
	.value	0x3
	.byte	0x70
	.sleb128 -1
	.byte	0x9f
	.quad	0
	.quad	0
.LVUS20:
	.uleb128 .LVU218
	.uleb128 .LVU224
	.uleb128 .LVU224
	.uleb128 .LVU233
	.uleb128 .LVU239
	.uleb128 .LVU245
	.uleb128 .LVU245
	.uleb128 .LVU252
	.uleb128 .LVU258
	.uleb128 .LVU264
	.uleb128 .LVU264
	.uleb128 .LVU271
	.uleb128 .LVU277
	.uleb128 .LVU283
	.uleb128 .LVU283
	.uleb128 .LVU290
	.uleb128 .LVU296
	.uleb128 .LVU302
	.uleb128 .LVU302
	.uleb128 .LVU309
	.uleb128 .LVU316
	.uleb128 .LVU322
	.uleb128 .LVU322
	.uleb128 .LVU329
	.uleb128 .LVU335
	.uleb128 .LVU341
	.uleb128 .LVU341
	.uleb128 .LVU350
.LLST20:
	.quad	.LVL61
	.quad	.LVL63
	.value	0x1
	.byte	0x59
	.quad	.LVL63
	.quad	.LVL66
	.value	0x6
	.byte	0x73
	.sleb128 0
	.byte	0x7a
	.sleb128 0
	.byte	0x22
	.byte	0x9f
	.quad	.LVL69
	.quad	.LVL71
	.value	0x1
	.byte	0x5a
	.quad	.LVL71
	.quad	.LVL74
	.value	0x6
	.byte	0x73
	.sleb128 0
	.byte	0x79
	.sleb128 0
	.byte	0x22
	.byte	0x9f
	.quad	.LVL77
	.quad	.LVL79
	.value	0x1
	.byte	0x5a
	.quad	.LVL79
	.quad	.LVL82
	.value	0x6
	.byte	0x73
	.sleb128 0
	.byte	0x79
	.sleb128 0
	.byte	0x22
	.byte	0x9f
	.quad	.LVL85
	.quad	.LVL87
	.value	0x1
	.byte	0x5a
	.quad	.LVL87
	.quad	.LVL90
	.value	0x6
	.byte	0x73
	.sleb128 0
	.byte	0x79
	.sleb128 0
	.byte	0x22
	.byte	0x9f
	.quad	.LVL93
	.quad	.LVL95
	.value	0x1
	.byte	0x5a
	.quad	.LVL95
	.quad	.LVL98
	.value	0x6
	.byte	0x73
	.sleb128 0
	.byte	0x79
	.sleb128 0
	.byte	0x22
	.byte	0x9f
	.quad	.LVL102
	.quad	.LVL104
	.value	0x1
	.byte	0x5a
	.quad	.LVL104
	.quad	.LVL107
	.value	0x6
	.byte	0x73
	.sleb128 0
	.byte	0x79
	.sleb128 0
	.byte	0x22
	.byte	0x9f
	.quad	.LVL109
	.quad	.LVL111
	.value	0x1
	.byte	0x50
	.quad	.LVL111
	.quad	.LVL115
	.value	0x6
	.byte	0x73
	.sleb128 0
	.byte	0x74
	.sleb128 0
	.byte	0x22
	.byte	0x9f
	.quad	0
	.quad	0
.LVUS21:
	.uleb128 .LVU219
	.uleb128 .LVU233
	.uleb128 .LVU240
	.uleb128 .LVU252
	.uleb128 .LVU259
	.uleb128 .LVU271
	.uleb128 .LVU278
	.uleb128 .LVU290
	.uleb128 .LVU297
	.uleb128 .LVU309
	.uleb128 .LVU317
	.uleb128 .LVU329
.LLST21:
	.quad	.LVL61
	.quad	.LVL66
	.value	0x1
	.byte	0x50
	.quad	.LVL69
	.quad	.LVL74
	.value	0x3
	.byte	0x70
	.sleb128 1
	.byte	0x9f
	.quad	.LVL77
	.quad	.LVL82
	.value	0x3
	.byte	0x70
	.sleb128 2
	.byte	0x9f
	.quad	.LVL85
	.quad	.LVL90
	.value	0x3
	.byte	0x70
	.sleb128 3
	.byte	0x9f
	.quad	.LVL93
	.quad	.LVL98
	.value	0x3
	.byte	0x70
	.sleb128 4
	.byte	0x9f
	.quad	.LVL102
	.quad	.LVL107
	.value	0x3
	.byte	0x70
	.sleb128 -1
	.byte	0x9f
	.quad	0
	.quad	0
.LVUS22:
	.uleb128 .LVU219
	.uleb128 .LVU224
	.uleb128 .LVU224
	.uleb128 .LVU233
	.uleb128 .LVU240
	.uleb128 .LVU245
	.uleb128 .LVU245
	.uleb128 .LVU252
	.uleb128 .LVU259
	.uleb128 .LVU264
	.uleb128 .LVU264
	.uleb128 .LVU271
	.uleb128 .LVU278
	.uleb128 .LVU283
	.uleb128 .LVU283
	.uleb128 .LVU290
	.uleb128 .LVU297
	.uleb128 .LVU302
	.uleb128 .LVU302
	.uleb128 .LVU309
	.uleb128 .LVU317
	.uleb128 .LVU322
	.uleb128 .LVU322
	.uleb128 .LVU329
	.uleb128 .LVU336
	.uleb128 .LVU341
	.uleb128 .LVU341
	.uleb128 .LVU350
.LLST22:
	.quad	.LVL61
	.quad	.LVL63
	.value	0x1
	.byte	0x59
	.quad	.LVL63
	.quad	.LVL66
	.value	0x6
	.byte	0x73
	.sleb128 0
	.byte	0x7a
	.sleb128 0
	.byte	0x22
	.byte	0x9f
	.quad	.LVL69
	.quad	.LVL71
	.value	0x1
	.byte	0x5a
	.quad	.LVL71
	.quad	.LVL74
	.value	0x6
	.byte	0x73
	.sleb128 0
	.byte	0x79
	.sleb128 0
	.byte	0x22
	.byte	0x9f
	.quad	.LVL77
	.quad	.LVL79
	.value	0x1
	.byte	0x5a
	.quad	.LVL79
	.quad	.LVL82
	.value	0x6
	.byte	0x73
	.sleb128 0
	.byte	0x79
	.sleb128 0
	.byte	0x22
	.byte	0x9f
	.quad	.LVL85
	.quad	.LVL87
	.value	0x1
	.byte	0x5a
	.quad	.LVL87
	.quad	.LVL90
	.value	0x6
	.byte	0x73
	.sleb128 0
	.byte	0x79
	.sleb128 0
	.byte	0x22
	.byte	0x9f
	.quad	.LVL93
	.quad	.LVL95
	.value	0x1
	.byte	0x5a
	.quad	.LVL95
	.quad	.LVL98
	.value	0x6
	.byte	0x73
	.sleb128 0
	.byte	0x79
	.sleb128 0
	.byte	0x22
	.byte	0x9f
	.quad	.LVL102
	.quad	.LVL104
	.value	0x1
	.byte	0x5a
	.quad	.LVL104
	.quad	.LVL107
	.value	0x6
	.byte	0x73
	.sleb128 0
	.byte	0x79
	.sleb128 0
	.byte	0x22
	.byte	0x9f
	.quad	.LVL109
	.quad	.LVL111
	.value	0x1
	.byte	0x50
	.quad	.LVL111
	.quad	.LVL115
	.value	0x6
	.byte	0x73
	.sleb128 0
	.byte	0x74
	.sleb128 0
	.byte	0x22
	.byte	0x9f
	.quad	0
	.quad	0
.LVUS23:
	.uleb128 .LVU228
	.uleb128 .LVU233
	.uleb128 .LVU247
	.uleb128 .LVU252
	.uleb128 .LVU266
	.uleb128 .LVU271
	.uleb128 .LVU285
	.uleb128 .LVU290
	.uleb128 .LVU304
	.uleb128 .LVU309
	.uleb128 .LVU324
	.uleb128 .LVU329
	.uleb128 .LVU343
	.uleb128 .LVU350
.LLST23:
	.quad	.LVL64
	.quad	.LVL66
	.value	0x1
	.byte	0x61
	.quad	.LVL72
	.quad	.LVL74
	.value	0x1
	.byte	0x61
	.quad	.LVL80
	.quad	.LVL82
	.value	0x1
	.byte	0x61
	.quad	.LVL88
	.quad	.LVL90
	.value	0x1
	.byte	0x61
	.quad	.LVL96
	.quad	.LVL98
	.value	0x1
	.byte	0x61
	.quad	.LVL105
	.quad	.LVL107
	.value	0x1
	.byte	0x61
	.quad	.LVL112
	.quad	.LVL115
	.value	0x1
	.byte	0x62
	.quad	0
	.quad	0
.LVUS24:
	.uleb128 .LVU230
	.uleb128 .LVU232
	.uleb128 .LVU249
	.uleb128 .LVU251
	.uleb128 .LVU268
	.uleb128 .LVU270
	.uleb128 .LVU287
	.uleb128 .LVU289
	.uleb128 .LVU306
	.uleb128 .LVU308
	.uleb128 .LVU326
	.uleb128 .LVU328
	.uleb128 .LVU347
	.uleb128 .LVU349
.LLST24:
	.quad	.LVL64
	.quad	.LVL65
	.value	0x1
	.byte	0x62
	.quad	.LVL72
	.quad	.LVL73
	.value	0x1
	.byte	0x62
	.quad	.LVL80
	.quad	.LVL81
	.value	0x1
	.byte	0x62
	.quad	.LVL88
	.quad	.LVL89
	.value	0x1
	.byte	0x62
	.quad	.LVL96
	.quad	.LVL97
	.value	0x1
	.byte	0x62
	.quad	.LVL105
	.quad	.LVL106
	.value	0x1
	.byte	0x62
	.quad	.LVL113
	.quad	.LVL114
	.value	0x1
	.byte	0x61
	.quad	0
	.quad	0
.LVUS25:
	.uleb128 .LVU221
	.uleb128 .LVU228
	.uleb128 .LVU242
	.uleb128 .LVU247
	.uleb128 .LVU261
	.uleb128 .LVU266
	.uleb128 .LVU280
	.uleb128 .LVU285
	.uleb128 .LVU299
	.uleb128 .LVU304
	.uleb128 .LVU319
	.uleb128 .LVU324
.LLST25:
	.quad	.LVL62
	.quad	.LVL64
	.value	0x1
	.byte	0x50
	.quad	.LVL70
	.quad	.LVL72
	.value	0x3
	.byte	0x70
	.sleb128 1
	.byte	0x9f
	.quad	.LVL78
	.quad	.LVL80
	.value	0x3
	.byte	0x70
	.sleb128 2
	.byte	0x9f
	.quad	.LVL86
	.quad	.LVL88
	.value	0x3
	.byte	0x70
	.sleb128 3
	.byte	0x9f
	.quad	.LVL94
	.quad	.LVL96
	.value	0x3
	.byte	0x70
	.sleb128 4
	.byte	0x9f
	.quad	.LVL103
	.quad	.LVL105
	.value	0x3
	.byte	0x70
	.sleb128 -1
	.byte	0x9f
	.quad	0
	.quad	0
.LVUS26:
	.uleb128 .LVU221
	.uleb128 .LVU228
	.uleb128 .LVU242
	.uleb128 .LVU247
	.uleb128 .LVU261
	.uleb128 .LVU266
	.uleb128 .LVU280
	.uleb128 .LVU285
	.uleb128 .LVU299
	.uleb128 .LVU304
	.uleb128 .LVU319
	.uleb128 .LVU324
	.uleb128 .LVU338
	.uleb128 .LVU343
.LLST26:
	.quad	.LVL62
	.quad	.LVL64
	.value	0x1
	.byte	0x5b
	.quad	.LVL70
	.quad	.LVL72
	.value	0x1
	.byte	0x5b
	.quad	.LVL78
	.quad	.LVL80
	.value	0x1
	.byte	0x5b
	.quad	.LVL86
	.quad	.LVL88
	.value	0x1
	.byte	0x5b
	.quad	.LVL94
	.quad	.LVL96
	.value	0x1
	.byte	0x5b
	.quad	.LVL103
	.quad	.LVL105
	.value	0x1
	.byte	0x5b
	.quad	.LVL110
	.quad	.LVL112
	.value	0x1
	.byte	0x55
	.quad	0
	.quad	0
.LVUS27:
	.uleb128 .LVU222
	.uleb128 .LVU228
	.uleb128 .LVU243
	.uleb128 .LVU247
	.uleb128 .LVU262
	.uleb128 .LVU266
	.uleb128 .LVU281
	.uleb128 .LVU285
	.uleb128 .LVU300
	.uleb128 .LVU304
	.uleb128 .LVU320
	.uleb128 .LVU324
	.uleb128 .LVU339
	.uleb128 .LVU343
.LLST27:
	.quad	.LVL62
	.quad	.LVL64
	.value	0x5
	.byte	0x7b
	.sleb128 0
	.byte	0x71
	.sleb128 0
	.byte	0x22
	.quad	.LVL70
	.quad	.LVL72
	.value	0x5
	.byte	0x7b
	.sleb128 0
	.byte	0x71
	.sleb128 0
	.byte	0x22
	.quad	.LVL78
	.quad	.LVL80
	.value	0x5
	.byte	0x7b
	.sleb128 0
	.byte	0x71
	.sleb128 0
	.byte	0x22
	.quad	.LVL86
	.quad	.LVL88
	.value	0x5
	.byte	0x7b
	.sleb128 0
	.byte	0x71
	.sleb128 0
	.byte	0x22
	.quad	.LVL94
	.quad	.LVL96
	.value	0x5
	.byte	0x7b
	.sleb128 0
	.byte	0x71
	.sleb128 0
	.byte	0x22
	.quad	.LVL103
	.quad	.LVL105
	.value	0x5
	.byte	0x7b
	.sleb128 0
	.byte	0x71
	.sleb128 0
	.byte	0x22
	.quad	.LVL110
	.quad	.LVL112
	.value	0x5
	.byte	0x75
	.sleb128 0
	.byte	0x71
	.sleb128 0
	.byte	0x22
	.quad	0
	.quad	0
.LVUS28:
	.uleb128 .LVU222
	.uleb128 .LVU228
	.uleb128 .LVU243
	.uleb128 .LVU247
	.uleb128 .LVU262
	.uleb128 .LVU266
	.uleb128 .LVU281
	.uleb128 .LVU285
	.uleb128 .LVU300
	.uleb128 .LVU304
	.uleb128 .LVU320
	.uleb128 .LVU324
	.uleb128 .LVU339
	.uleb128 .LVU343
.LLST28:
	.quad	.LVL62
	.quad	.LVL64
	.value	0x5
	.byte	0x7b
	.sleb128 0
	.byte	0x72
	.sleb128 0
	.byte	0x22
	.quad	.LVL70
	.quad	.LVL72
	.value	0x5
	.byte	0x7b
	.sleb128 0
	.byte	0x72
	.sleb128 0
	.byte	0x22
	.quad	.LVL78
	.quad	.LVL80
	.value	0x5
	.byte	0x7b
	.sleb128 0
	.byte	0x72
	.sleb128 0
	.byte	0x22
	.quad	.LVL86
	.quad	.LVL88
	.value	0x5
	.byte	0x7b
	.sleb128 0
	.byte	0x72
	.sleb128 0
	.byte	0x22
	.quad	.LVL94
	.quad	.LVL96
	.value	0x5
	.byte	0x7b
	.sleb128 0
	.byte	0x72
	.sleb128 0
	.byte	0x22
	.quad	.LVL103
	.quad	.LVL105
	.value	0x5
	.byte	0x7b
	.sleb128 0
	.byte	0x72
	.sleb128 0
	.byte	0x22
	.quad	.LVL110
	.quad	.LVL112
	.value	0x5
	.byte	0x75
	.sleb128 0
	.byte	0x72
	.sleb128 0
	.byte	0x22
	.quad	0
	.quad	0
.LVUS29:
	.uleb128 .LVU228
	.uleb128 .LVU230
	.uleb128 .LVU247
	.uleb128 .LVU249
	.uleb128 .LVU266
	.uleb128 .LVU268
	.uleb128 .LVU285
	.uleb128 .LVU287
	.uleb128 .LVU304
	.uleb128 .LVU306
	.uleb128 .LVU324
	.uleb128 .LVU326
.LLST29:
	.quad	.LVL64
	.quad	.LVL64
	.value	0x1
	.byte	0x50
	.quad	.LVL72
	.quad	.LVL72
	.value	0x3
	.byte	0x70
	.sleb128 1
	.byte	0x9f
	.quad	.LVL80
	.quad	.LVL80
	.value	0x3
	.byte	0x70
	.sleb128 2
	.byte	0x9f
	.quad	.LVL88
	.quad	.LVL88
	.value	0x3
	.byte	0x70
	.sleb128 3
	.byte	0x9f
	.quad	.LVL96
	.quad	.LVL96
	.value	0x3
	.byte	0x70
	.sleb128 4
	.byte	0x9f
	.quad	.LVL105
	.quad	.LVL105
	.value	0x3
	.byte	0x70
	.sleb128 -1
	.byte	0x9f
	.quad	0
	.quad	0
.LVUS30:
	.uleb128 .LVU247
	.uleb128 .LVU249
	.uleb128 .LVU266
	.uleb128 .LVU268
	.uleb128 .LVU285
	.uleb128 .LVU287
	.uleb128 .LVU304
	.uleb128 .LVU306
	.uleb128 .LVU324
	.uleb128 .LVU326
	.uleb128 .LVU343
	.uleb128 .LVU347
.LLST30:
	.quad	.LVL72
	.quad	.LVL72
	.value	0x1
	.byte	0x5a
	.quad	.LVL80
	.quad	.LVL80
	.value	0x1
	.byte	0x5a
	.quad	.LVL88
	.quad	.LVL88
	.value	0x1
	.byte	0x5a
	.quad	.LVL96
	.quad	.LVL96
	.value	0x1
	.byte	0x5a
	.quad	.LVL105
	.quad	.LVL105
	.value	0x1
	.byte	0x5a
	.quad	.LVL112
	.quad	.LVL113
	.value	0x1
	.byte	0x50
	.quad	0
	.quad	0
.LVUS31:
	.uleb128 .LVU345
	.uleb128 .LVU347
.LLST31:
	.quad	.LVL112
	.quad	.LVL113
	.value	0x5
	.byte	0x70
	.sleb128 0
	.byte	0x71
	.sleb128 0
	.byte	0x22
	.quad	0
	.quad	0
.LVUS32:
	.uleb128 .LVU345
	.uleb128 .LVU347
.LLST32:
	.quad	.LVL112
	.quad	.LVL113
	.value	0x5
	.byte	0x70
	.sleb128 0
	.byte	0x72
	.sleb128 0
	.byte	0x22
	.quad	0
	.quad	0
	.section	.debug_aranges,"",@progbits
	.long	0x3c
	.value	0x2
	.long	.Ldebug_info0
	.byte	0x8
	.byte	0
	.value	0
	.value	0
	.quad	.Ltext_cold0
	.quad	.Letext_cold0-.Ltext_cold0
	.quad	.LFB35
	.quad	.LHOTE1-.LFB35
	.quad	0
	.quad	0
	.section	.debug_ranges,"",@progbits
.Ldebug_ranges0:
	.quad	.LFB35
	.quad	.LHOTE1
	.quad	.LFSB35
	.quad	.LCOLDE1
	.quad	0
	.quad	0
	.quad	.LBB88
	.quad	.LBE88
	.quad	.LBB93
	.quad	.LBE93
	.quad	.LBB94
	.quad	.LBE94
	.quad	.LBB99
	.quad	.LBE99
	.quad	0
	.quad	0
	.quad	.LBB95
	.quad	.LBE95
	.quad	.LBB100
	.quad	.LBE100
	.quad	.LBB101
	.quad	.LBE101
	.quad	0
	.quad	0
	.quad	.LBB103
	.quad	.LBE103
	.quad	.LBB106
	.quad	.LBE106
	.quad	0
	.quad	0
	.quad	.LBB110
	.quad	.LBE110
	.quad	.LBB242
	.quad	.LBE242
	.quad	.LBB243
	.quad	.LBE243
	.quad	.LBB244
	.quad	.LBE244
	.quad	.LBB245
	.quad	.LBE245
	.quad	0
	.quad	0
	.quad	.LBB112
	.quad	.LBE112
	.quad	.LBB236
	.quad	.LBE236
	.quad	.LBB237
	.quad	.LBE237
	.quad	0
	.quad	0
	.quad	.LBB124
	.quad	.LBE124
	.quad	.LBB235
	.quad	.LBE235
	.quad	0
	.quad	0
	.quad	.LBB125
	.quad	.LBE125
	.quad	.LBB234
	.quad	.LBE234
	.quad	0
	.quad	0
	.quad	.LBB126
	.quad	.LBE126
	.quad	.LBB233
	.quad	.LBE233
	.quad	0
	.quad	0
	.quad	.LBB127
	.quad	.LBE127
	.quad	.LBB225
	.quad	.LBE225
	.quad	.LBB226
	.quad	.LBE226
	.quad	.LBB227
	.quad	.LBE227
	.quad	.LBB228
	.quad	.LBE228
	.quad	.LBB229
	.quad	.LBE229
	.quad	.LBB230
	.quad	.LBE230
	.quad	.LBB231
	.quad	.LBE231
	.quad	.LBB232
	.quad	.LBE232
	.quad	0
	.quad	0
	.quad	.LBB128
	.quad	.LBE128
	.quad	.LBB216
	.quad	.LBE216
	.quad	.LBB217
	.quad	.LBE217
	.quad	.LBB218
	.quad	.LBE218
	.quad	.LBB219
	.quad	.LBE219
	.quad	.LBB220
	.quad	.LBE220
	.quad	.LBB221
	.quad	.LBE221
	.quad	.LBB222
	.quad	.LBE222
	.quad	.LBB223
	.quad	.LBE223
	.quad	.LBB224
	.quad	.LBE224
	.quad	0
	.quad	0
	.quad	.LBB130
	.quad	.LBE130
	.quad	.LBB147
	.quad	.LBE147
	.quad	.LBB164
	.quad	.LBE164
	.quad	.LBB166
	.quad	.LBE166
	.quad	.LBB168
	.quad	.LBE168
	.quad	.LBB170
	.quad	.LBE170
	.quad	.LBB172
	.quad	.LBE172
	.quad	.LBB174
	.quad	.LBE174
	.quad	.LBB176
	.quad	.LBE176
	.quad	.LBB178
	.quad	.LBE178
	.quad	.LBB180
	.quad	.LBE180
	.quad	.LBB182
	.quad	.LBE182
	.quad	.LBB184
	.quad	.LBE184
	.quad	.LBB186
	.quad	.LBE186
	.quad	.LBB188
	.quad	.LBE188
	.quad	.LBB190
	.quad	.LBE190
	.quad	.LBB192
	.quad	.LBE192
	.quad	.LBB194
	.quad	.LBE194
	.quad	.LBB196
	.quad	.LBE196
	.quad	.LBB198
	.quad	.LBE198
	.quad	.LBB200
	.quad	.LBE200
	.quad	.LBB202
	.quad	.LBE202
	.quad	.LBB204
	.quad	.LBE204
	.quad	.LBB205
	.quad	.LBE205
	.quad	0
	.quad	0
	.quad	.LBB131
	.quad	.LBE131
	.quad	.LBB132
	.quad	.LBE132
	.quad	.LBB133
	.quad	.LBE133
	.quad	.LBB134
	.quad	.LBE134
	.quad	.LBB135
	.quad	.LBE135
	.quad	.LBB136
	.quad	.LBE136
	.quad	.LBB137
	.quad	.LBE137
	.quad	.LBB138
	.quad	.LBE138
	.quad	.LBB139
	.quad	.LBE139
	.quad	.LBB140
	.quad	.LBE140
	.quad	.LBB141
	.quad	.LBE141
	.quad	.LBB142
	.quad	.LBE142
	.quad	.LBB143
	.quad	.LBE143
	.quad	.LBB144
	.quad	.LBE144
	.quad	.LBB145
	.quad	.LBE145
	.quad	.LBB146
	.quad	.LBE146
	.quad	0
	.quad	0
	.quad	.LBB148
	.quad	.LBE148
	.quad	.LBB165
	.quad	.LBE165
	.quad	.LBB167
	.quad	.LBE167
	.quad	.LBB169
	.quad	.LBE169
	.quad	.LBB171
	.quad	.LBE171
	.quad	.LBB173
	.quad	.LBE173
	.quad	.LBB175
	.quad	.LBE175
	.quad	.LBB177
	.quad	.LBE177
	.quad	.LBB179
	.quad	.LBE179
	.quad	.LBB181
	.quad	.LBE181
	.quad	.LBB183
	.quad	.LBE183
	.quad	.LBB185
	.quad	.LBE185
	.quad	.LBB187
	.quad	.LBE187
	.quad	.LBB189
	.quad	.LBE189
	.quad	.LBB191
	.quad	.LBE191
	.quad	.LBB193
	.quad	.LBE193
	.quad	.LBB195
	.quad	.LBE195
	.quad	.LBB197
	.quad	.LBE197
	.quad	.LBB199
	.quad	.LBE199
	.quad	.LBB201
	.quad	.LBE201
	.quad	.LBB203
	.quad	.LBE203
	.quad	.LBB206
	.quad	.LBE206
	.quad	0
	.quad	0
	.quad	.LBB149
	.quad	.LBE149
	.quad	.LBB150
	.quad	.LBE150
	.quad	.LBB151
	.quad	.LBE151
	.quad	.LBB152
	.quad	.LBE152
	.quad	.LBB153
	.quad	.LBE153
	.quad	.LBB154
	.quad	.LBE154
	.quad	.LBB155
	.quad	.LBE155
	.quad	.LBB156
	.quad	.LBE156
	.quad	.LBB157
	.quad	.LBE157
	.quad	.LBB158
	.quad	.LBE158
	.quad	.LBB159
	.quad	.LBE159
	.quad	.LBB160
	.quad	.LBE160
	.quad	.LBB161
	.quad	.LBE161
	.quad	.LBB162
	.quad	.LBE162
	.quad	.LBB163
	.quad	.LBE163
	.quad	0
	.quad	0
	.quad	.Ltext_cold0
	.quad	.Letext_cold0
	.quad	.LFB35
	.quad	.LHOTE1
	.quad	0
	.quad	0
	.section	.debug_line,"",@progbits
.Ldebug_line0:
	.section	.debug_str,"MS",@progbits,1
.LASF61:
	.string	"atoll"
.LASF17:
	.string	"quot"
.LASF18:
	.string	"size_t"
.LASF7:
	.string	"__cxx11"
.LASF8:
	.string	"_ZSt3divll"
.LASF92:
	.string	"is_zero_stride"
.LASF83:
	.string	"is_all_zero_stride<2, -1, float, int>"
.LASF58:
	.string	"wcstombs"
.LASF24:
	.string	"7lldiv_t"
.LASF96:
	.string	"__builtin_memset"
.LASF36:
	.string	"long long unsigned int"
.LASF95:
	.string	"operator new []"
.LASF79:
	.string	"data"
.LASF33:
	.string	"__int64_t"
.LASF38:
	.string	"atexit"
.LASF19:
	.string	"div_t"
.LASF25:
	.string	"long long int"
.LASF30:
	.string	"signed char"
.LASF47:
	.string	"mblen"
.LASF75:
	.string	"InterpLinear<2, float, int>"
.LASF89:
	.string	"scale"
.LASF54:
	.string	"strtod"
.LASF64:
	.string	"strtof"
.LASF22:
	.string	"long int"
.LASF76:
	.string	"_ZN12InterpLinearILi2EfiE4evalEPcPS1_PKll"
.LASF55:
	.string	"strtol"
.LASF13:
	.string	"__float128"
.LASF23:
	.string	"ldiv_t"
.LASF15:
	.string	"double"
.LASF50:
	.string	"mbtowc"
.LASF52:
	.string	"qsort"
.LASF43:
	.string	"atol"
.LASF77:
	.string	"InterpLinear<1, float, int>"
.LASF12:
	.string	"__unknown__"
.LASF11:
	.string	"unsigned int"
.LASF66:
	.string	"__int128"
.LASF93:
	.string	"_Znam"
.LASF104:
	.string	"_Z22ti_cpu_upsample_linearIfiLi2EEvPPcPll"
.LASF10:
	.string	"long unsigned int"
.LASF53:
	.string	"srand"
.LASF102:
	.string	"rand"
.LASF73:
	.string	"_ZN15IsAllZeroStrideILi2ELin1EfiE4evalEPKl"
.LASF20:
	.string	"5div_t"
.LASF27:
	.string	"short unsigned int"
.LASF44:
	.string	"bsearch"
.LASF60:
	.string	"lldiv"
.LASF74:
	.string	"_ZN15IsAllZeroStrideILi1ELin1EfiE4evalEPKl"
.LASF49:
	.string	"wchar_t"
.LASF69:
	.string	"index_t"
.LASF70:
	.string	"bool"
.LASF84:
	.string	"ti_cpu_upsample_linear<float, int, 2>"
.LASF45:
	.string	"getenv"
.LASF100:
	.string	"/interpolate-tensoriterator/playground/inspect_assembly_code"
.LASF81:
	.string	"out_ndims"
.LASF68:
	.string	"scalar_t"
.LASF16:
	.string	"long double"
.LASF80:
	.string	"strides"
.LASF39:
	.string	"at_quick_exit"
.LASF46:
	.string	"ldiv"
.LASF51:
	.string	"quick_exit"
.LASF42:
	.string	"__nptr"
.LASF88:
	.string	"out_size"
.LASF14:
	.string	"float"
.LASF48:
	.string	"mbstowcs"
.LASF90:
	.string	"output"
.LASF40:
	.string	"atof"
.LASF41:
	.string	"atoi"
.LASF34:
	.string	"int32_t"
.LASF29:
	.string	"unsigned char"
.LASF21:
	.string	"6ldiv_t"
.LASF26:
	.string	"lldiv_t"
.LASF31:
	.string	"short int"
.LASF99:
	.string	"main.cpp"
.LASF65:
	.string	"strtold"
.LASF97:
	.string	"__cxa_throw_bad_array_new_length"
.LASF62:
	.string	"strtoll"
.LASF59:
	.string	"wctomb"
.LASF91:
	.string	"input"
.LASF4:
	.string	"_ZSt3absd"
.LASF2:
	.string	"_ZSt3abse"
.LASF3:
	.string	"_ZSt3absf"
.LASF0:
	.string	"_ZSt3absg"
.LASF9:
	.string	"_ZN9__gnu_cxx3divExx"
.LASF6:
	.string	"_ZSt3absl"
.LASF1:
	.string	"_ZSt3absn"
.LASF5:
	.string	"_ZSt3absx"
.LASF28:
	.string	"char"
.LASF71:
	.string	"IsAllZeroStride<2, -1, float, int>"
.LASF63:
	.string	"strtoull"
.LASF103:
	.string	"basic_loop<float, int, 2>"
.LASF78:
	.string	"_ZN12InterpLinearILi1EfiE4evalEPcPS1_PKll"
.LASF32:
	.string	"__int32_t"
.LASF82:
	.string	"interp_linear<2, float, int>"
.LASF72:
	.string	"IsAllZeroStride<1, -1, float, int>"
.LASF86:
	.string	"argv"
.LASF94:
	.string	"memset"
.LASF56:
	.string	"strtoul"
.LASF57:
	.string	"system"
.LASF37:
	.string	"__compar_fn_t"
.LASF85:
	.string	"argc"
.LASF35:
	.string	"int64_t"
.LASF105:
	.string	"main"
.LASF98:
	.string	"GNU C++14 9.3.0 -mavx -mfma -mavx2 -mtune=generic -march=x86-64 -g -O3 -fopt-info-vec-missed -fopt-info-vec -fasynchronous-unwind-tables -fstack-protector-strong -fstack-clash-protection -fcf-protection"
.LASF87:
	.string	"in_size"
.LASF101:
	.string	"__gnu_cxx"
.LASF67:
	.string	"eval"
	.ident	"GCC: (Ubuntu 9.3.0-17ubuntu1~20.04) 9.3.0"
	.section	.note.GNU-stack,"",@progbits
	.section	.note.gnu.property,"a"
	.align 8
	.long	 1f - 0f
	.long	 4f - 1f
	.long	 5
0:
	.string	 "GNU"
1:
	.align 8
	.long	 0xc0000002
	.long	 3f - 2f
2:
	.long	 0x3
3:
	.align 8
4:
