	.file	"main.cpp"
# GNU C++14 (Ubuntu 9.3.0-17ubuntu1~20.04) version 9.3.0 (x86_64-linux-gnu)
#	compiled by GNU C version 9.3.0, GMP version 6.2.0, MPFR version 4.0.2, MPC version 1.1.0, isl version isl-0.22.1-GMP

# GGC heuristics: --param ggc-min-expand=100 --param ggc-min-heapsize=131072
# options passed:  -imultiarch x86_64-linux-gnu -D_GNU_SOURCE main.cpp
# -mavx -mfma -mavx2 -mtune=generic -march=x86-64 -auxbase-strip main.s -g
# -O3 -fverbose-asm -fopt-info-vec-missed -fopt-info-vec
# -fasynchronous-unwind-tables -fstack-protector-strong -Wformat
# -Wformat-security -fstack-clash-protection -fcf-protection
# options enabled:  -fPIC -fPIE -faggressive-loop-optimizations
# -falign-functions -falign-jumps -falign-labels -falign-loops
# -fassume-phsa -fasynchronous-unwind-tables -fauto-inc-dec
# -fbranch-count-reg -fcaller-saves -fcode-hoisting
# -fcombine-stack-adjustments -fcommon -fcompare-elim -fcprop-registers
# -fcrossjumping -fcse-follow-jumps -fdefer-pop
# -fdelete-null-pointer-checks -fdevirtualize -fdevirtualize-speculatively
# -fdwarf2-cfi-asm -fearly-inlining -feliminate-unused-debug-types
# -fexceptions -fexpensive-optimizations -fforward-propagate
# -ffp-int-builtin-inexact -ffunction-cse -fgcse -fgcse-after-reload
# -fgcse-lm -fgnu-runtime -fgnu-unique -fguess-branch-probability
# -fhoist-adjacent-loads -fident -fif-conversion -fif-conversion2
# -findirect-inlining -finline -finline-atomics -finline-functions
# -finline-functions-called-once -finline-small-functions -fipa-bit-cp
# -fipa-cp -fipa-cp-clone -fipa-icf -fipa-icf-functions -fipa-icf-variables
# -fipa-profile -fipa-pure-const -fipa-ra -fipa-reference
# -fipa-reference-addressable -fipa-sra -fipa-stack-alignment -fipa-vrp
# -fira-hoist-pressure -fira-share-save-slots -fira-share-spill-slots
# -fisolate-erroneous-paths-dereference -fivopts -fkeep-static-consts
# -fleading-underscore -flifetime-dse -floop-interchange
# -floop-unroll-and-jam -flra-remat -flto-odr-type-merging -fmath-errno
# -fmerge-constants -fmerge-debug-strings -fmove-loop-invariants
# -fomit-frame-pointer -foptimize-sibling-calls -foptimize-strlen
# -fpartial-inlining -fpeel-loops -fpeephole -fpeephole2 -fplt
# -fpredictive-commoning -fprefetch-loop-arrays -free -freg-struct-return
# -freorder-blocks -freorder-blocks-and-partition -freorder-functions
# -frerun-cse-after-loop -fsched-critical-path-heuristic
# -fsched-dep-count-heuristic -fsched-group-heuristic -fsched-interblock
# -fsched-last-insn-heuristic -fsched-rank-heuristic -fsched-spec
# -fsched-spec-insn-heuristic -fsched-stalled-insns-dep -fschedule-fusion
# -fschedule-insns2 -fsemantic-interposition -fshow-column -fshrink-wrap
# -fshrink-wrap-separate -fsigned-zeros -fsplit-ivs-in-unroller
# -fsplit-loops -fsplit-paths -fsplit-wide-types -fssa-backprop
# -fssa-phiopt -fstack-clash-protection -fstack-protector-strong
# -fstdarg-opt -fstore-merging -fstrict-aliasing
# -fstrict-volatile-bitfields -fsync-libcalls -fthread-jumps
# -ftoplevel-reorder -ftrapping-math -ftree-bit-ccp -ftree-builtin-call-dce
# -ftree-ccp -ftree-ch -ftree-coalesce-vars -ftree-copy-prop -ftree-cselim
# -ftree-dce -ftree-dominator-opts -ftree-dse -ftree-forwprop -ftree-fre
# -ftree-loop-distribute-patterns -ftree-loop-distribution
# -ftree-loop-if-convert -ftree-loop-im -ftree-loop-ivcanon
# -ftree-loop-optimize -ftree-loop-vectorize -ftree-parallelize-loops=
# -ftree-partial-pre -ftree-phiprop -ftree-pre -ftree-pta -ftree-reassoc
# -ftree-scev-cprop -ftree-sink -ftree-slp-vectorize -ftree-slsr -ftree-sra
# -ftree-switch-conversion -ftree-tail-merge -ftree-ter -ftree-vrp
# -funit-at-a-time -funswitch-loops -funwind-tables -fvar-tracking
# -fvar-tracking-assignments -fverbose-asm -fversion-loops-for-strides
# -fzero-initialized-in-bss -m128bit-long-double -m64 -m80387
# -malign-stringops -mavx -mavx2 -mavx256-split-unaligned-load
# -mavx256-split-unaligned-store -mfancy-math-387 -mfma -mfp-ret-in-387
# -mfxsr -mglibc -mieee-fp -mlong-double-80 -mmmx -mpopcnt -mpush-args
# -mred-zone -msse -msse2 -msse3 -msse4 -msse4.1 -msse4.2 -mssse3 -mstv
# -mtls-direct-seg-refs -mvzeroupper -mxsave

	.text
.Ltext0:
	.section	.text.unlikely,"ax",@progbits
.LCOLDB1:
	.section	.text.startup,"ax",@progbits
.LHOTB1:
	.p2align 4
	.section	.text.unlikely
.Ltext_cold0:
	.section	.text.startup
	.globl	main
	.type	main, @function
main:
.LVL0:
.LFB35:
	.file 1 "main.cpp"
	.loc 1 113 34 view -0
	.cfi_startproc
	.loc 1 113 34 is_stmt 0 view .LVU1
	endbr64	
	.loc 1 115 5 is_stmt 1 view .LVU2
.LVL1:
.LBB88:
.LBI88:
	.file 2 "/usr/include/stdlib.h"
	.loc 2 361 1 view .LVU3
.LBB89:
	.loc 2 363 3 view .LVU4
.LBE89:
.LBE88:
# main.cpp:113: int main(int argc, char ** argv) {
	.loc 1 113 34 is_stmt 0 view .LVU5
	pushq	%rbp	#
	.cfi_def_cfa_offset 16
	.cfi_offset 6, -16
.LVL2:
.LBB93:
.LBB90:
# /usr/include/stdlib.h:363:   return (int) strtol (__nptr, (char **) NULL, 10);
	.loc 2 363 23 view .LVU6
	movl	$10, %edx	#,
.LBE90:
.LBE93:
# main.cpp:113: int main(int argc, char ** argv) {
	.loc 1 113 34 view .LVU7
	movq	%rsp, %rbp	#,
	.cfi_def_cfa_register 6
	pushq	%r15	#
	pushq	%r14	#
	pushq	%r13	#
	pushq	%r12	#
	.cfi_offset 15, -24
	.cfi_offset 14, -32
	.cfi_offset 13, -40
	.cfi_offset 12, -48
	movq	%rsi, %r12	# tmp445, argv
	pushq	%rbx	#
	andq	$-32, %rsp	#,
	subq	$192, %rsp	#,
	.cfi_offset 3, -56
# main.cpp:113: int main(int argc, char ** argv) {
	.loc 1 113 34 view .LVU8
	movl	%edi, 12(%rsp)	# tmp444, %sfp
.LBB94:
.LBB91:
# /usr/include/stdlib.h:363:   return (int) strtol (__nptr, (char **) NULL, 10);
	.loc 2 363 23 view .LVU9
	movq	8(%rsi), %rdi	# MEM[(char * *)argv_55(D) + 8B], MEM[(char * *)argv_55(D) + 8B]
.LVL3:
	.loc 2 363 23 view .LVU10
	xorl	%esi, %esi	#
.LVL4:
	.loc 2 363 23 view .LVU11
	call	strtol@PLT	#
.LVL5:
.LBE91:
.LBE94:
.LBB95:
.LBB96:
	movq	16(%r12), %rdi	# MEM[(char * *)argv_55(D) + 16B], MEM[(char * *)argv_55(D) + 16B]
	movl	$10, %edx	#,
	xorl	%esi, %esi	#
.LBE96:
.LBE95:
.LBB99:
.LBB92:
	movq	%rax, %r13	# tmp446, _121
.LVL6:
	.loc 2 363 23 view .LVU12
.LBE92:
.LBE99:
	.loc 1 116 5 is_stmt 1 view .LVU13
.LBB100:
.LBI95:
	.loc 2 361 1 view .LVU14
.LBB97:
	.loc 2 363 3 view .LVU15
# /usr/include/stdlib.h:363:   return (int) strtol (__nptr, (char **) NULL, 10);
	.loc 2 363 23 is_stmt 0 view .LVU16
	call	strtol@PLT	#
.LVL7:
	.loc 2 363 23 view .LVU17
.LBE97:
.LBE100:
# main.cpp:115:     int64_t in_size = atoi(argv[1]);
	.loc 1 115 13 view .LVU18
	movslq	%r13d, %rbx	# _121, in_size.3_67
.LVL8:
# main.cpp:117:     float scale = out_size / in_size;
	.loc 1 117 11 view .LVU19
	vxorps	%xmm2, %xmm2, %xmm2	# tmp462
# main.cpp:116:     int64_t out_size = atoi(argv[2]);
	.loc 1 116 13 view .LVU20
	movslq	%eax, %rdi	# _119, out_size
.LBB101:
.LBB98:
# /usr/include/stdlib.h:363:   return (int) strtol (__nptr, (char **) NULL, 10);
	.loc 2 363 23 view .LVU21
	movq	%rax, %r14	# tmp447, _119
.LVL9:
	.loc 2 363 23 view .LVU22
.LBE98:
.LBE101:
	.loc 1 117 5 is_stmt 1 view .LVU23
# main.cpp:117:     float scale = out_size / in_size;
	.loc 1 117 28 is_stmt 0 view .LVU24
	movq	%rdi, %rax	# out_size, tmp356
	cqto
	idivq	%rbx	# in_size.3_67
# main.cpp:117:     float scale = out_size / in_size;
	.loc 1 117 11 view .LVU25
	vcvtsi2ssq	%rax, %xmm2, %xmm0	# tmp356, tmp462, tmp463
# main.cpp:119:     float * output = new float[out_size];
	.loc 1 119 40 view .LVU26
	movabsq	$2305843009213693950, %rax	#, tmp358
# main.cpp:117:     float scale = out_size / in_size;
	.loc 1 117 11 view .LVU27
	vmovss	%xmm0, 128(%rsp)	# tmp463, %sfp
.LVL10:
	.loc 1 119 5 is_stmt 1 view .LVU28
# main.cpp:119:     float * output = new float[out_size];
	.loc 1 119 40 is_stmt 0 view .LVU29
	cmpq	%rax, %rdi	# tmp358, out_size
	ja	.L2	#,
# main.cpp:119:     float * output = new float[out_size];
	.loc 1 119 40 discriminator 1 view .LVU30
	salq	$2, %rdi	#, tmp359
.LVL11:
	.loc 1 119 40 discriminator 1 view .LVU31
	call	_Znam@PLT	#
.LVL12:
	.loc 1 119 40 discriminator 1 view .LVU32
	movq	%rax, 64(%rsp)	# tmp448, %sfp
.LVL13:
	.loc 1 120 5 is_stmt 1 discriminator 1 view .LVU33
.LBB102:
	.loc 1 120 20 discriminator 1 view .LVU34
	testl	%r14d, %r14d	# _119
	jle	.L5	#,
	movq	%rax, %rdi	# tmp448,
# main.cpp:121:         output[i] = 0.0;
	.loc 1 121 19 is_stmt 0 view .LVU35
	leal	-1(%r14), %eax	#, tmp363
.LVL14:
	.loc 1 121 19 view .LVU36
	xorl	%esi, %esi	#
	leaq	4(,%rax,4), %rdx	#, tmp365
	call	memset@PLT	#
.LVL15:
.L5:
	.loc 1 121 19 view .LVU37
.LBE102:
	.loc 1 124 5 is_stmt 1 view .LVU38
# main.cpp:124:     float * input = new float[in_size];
	.loc 1 124 38 is_stmt 0 view .LVU39
	movabsq	$2305843009213693950, %rax	#, tmp361
	cmpq	%rax, %rbx	# tmp361, in_size.3_67
	ja	.L2	#,
# main.cpp:124:     float * input = new float[in_size];
	.loc 1 124 38 discriminator 1 view .LVU40
	leaq	0(,%rbx,4), %r14	#, iftmp.2_69
	movq	%r14, %rdi	# iftmp.2_69,
	call	_Znam@PLT	#
.LVL16:
# main.cpp:125:     int32_t * ix0 = new int32_t[in_size];
	.loc 1 125 40 discriminator 1 view .LVU41
	movq	%r14, %rdi	# iftmp.2_69,
# main.cpp:124:     float * input = new float[in_size];
	.loc 1 124 38 discriminator 1 view .LVU42
	movq	%rax, %rbx	# tmp449, _71
.LVL17:
	.loc 1 125 5 is_stmt 1 discriminator 1 view .LVU43
# main.cpp:125:     int32_t * ix0 = new int32_t[in_size];
	.loc 1 125 40 is_stmt 0 discriminator 1 view .LVU44
	call	_Znam@PLT	#
.LVL18:
# main.cpp:126:     int32_t * ix1 = new int32_t[in_size];
	.loc 1 126 40 discriminator 1 view .LVU45
	movq	%r14, %rdi	# iftmp.2_69,
# main.cpp:125:     int32_t * ix0 = new int32_t[in_size];
	.loc 1 125 40 discriminator 1 view .LVU46
	movq	%rax, 184(%rsp)	# tmp450, %sfp
.LVL19:
	.loc 1 126 5 is_stmt 1 discriminator 1 view .LVU47
# main.cpp:126:     int32_t * ix1 = new int32_t[in_size];
	.loc 1 126 40 is_stmt 0 discriminator 1 view .LVU48
	call	_Znam@PLT	#
.LVL20:
# main.cpp:127:     int32_t * iy0 = new int32_t[in_size];
	.loc 1 127 40 discriminator 1 view .LVU49
	movq	%r14, %rdi	# iftmp.2_69,
# main.cpp:126:     int32_t * ix1 = new int32_t[in_size];
	.loc 1 126 40 discriminator 1 view .LVU50
	movq	%rax, %r15	# tmp451, _75
.LVL21:
	.loc 1 127 5 is_stmt 1 discriminator 1 view .LVU51
# main.cpp:127:     int32_t * iy0 = new int32_t[in_size];
	.loc 1 127 40 is_stmt 0 discriminator 1 view .LVU52
	call	_Znam@PLT	#
.LVL22:
# main.cpp:128:     int32_t * iy1 = new int32_t[in_size];
	.loc 1 128 40 discriminator 1 view .LVU53
	movq	%r14, %rdi	# iftmp.2_69,
# main.cpp:127:     int32_t * iy0 = new int32_t[in_size];
	.loc 1 127 40 discriminator 1 view .LVU54
	movq	%rax, 56(%rsp)	# tmp452, %sfp
.LVL23:
	.loc 1 128 5 is_stmt 1 discriminator 1 view .LVU55
# main.cpp:128:     int32_t * iy1 = new int32_t[in_size];
	.loc 1 128 40 is_stmt 0 discriminator 1 view .LVU56
	call	_Znam@PLT	#
.LVL24:
# main.cpp:130:     float * wx0 = new float[in_size];
	.loc 1 130 36 discriminator 1 view .LVU57
	movq	%r14, %rdi	# iftmp.2_69,
# main.cpp:128:     int32_t * iy1 = new int32_t[in_size];
	.loc 1 128 40 discriminator 1 view .LVU58
	movq	%rax, 48(%rsp)	# tmp453, %sfp
.LVL25:
	.loc 1 130 5 is_stmt 1 discriminator 1 view .LVU59
# main.cpp:130:     float * wx0 = new float[in_size];
	.loc 1 130 36 is_stmt 0 discriminator 1 view .LVU60
	call	_Znam@PLT	#
.LVL26:
# main.cpp:131:     float * wx1 = new float[in_size];
	.loc 1 131 36 discriminator 1 view .LVU61
	movq	%r14, %rdi	# iftmp.2_69,
# main.cpp:130:     float * wx0 = new float[in_size];
	.loc 1 130 36 discriminator 1 view .LVU62
	movq	%rax, 40(%rsp)	# tmp454, %sfp
.LVL27:
	.loc 1 131 5 is_stmt 1 discriminator 1 view .LVU63
# main.cpp:131:     float * wx1 = new float[in_size];
	.loc 1 131 36 is_stmt 0 discriminator 1 view .LVU64
	call	_Znam@PLT	#
.LVL28:
# main.cpp:132:     float * wy0 = new float[in_size];
	.loc 1 132 36 discriminator 1 view .LVU65
	movq	%r14, %rdi	# iftmp.2_69,
# main.cpp:131:     float * wx1 = new float[in_size];
	.loc 1 131 36 discriminator 1 view .LVU66
	movq	%rax, 32(%rsp)	# tmp455, %sfp
.LVL29:
	.loc 1 132 5 is_stmt 1 discriminator 1 view .LVU67
# main.cpp:132:     float * wy0 = new float[in_size];
	.loc 1 132 36 is_stmt 0 discriminator 1 view .LVU68
	call	_Znam@PLT	#
.LVL30:
# main.cpp:133:     float * wy1 = new float[in_size];
	.loc 1 133 36 discriminator 1 view .LVU69
	movq	%r14, %rdi	# iftmp.2_69,
# main.cpp:132:     float * wy0 = new float[in_size];
	.loc 1 132 36 discriminator 1 view .LVU70
	movq	%rax, 24(%rsp)	# tmp456, %sfp
.LVL31:
	.loc 1 133 5 is_stmt 1 discriminator 1 view .LVU71
# main.cpp:133:     float * wy1 = new float[in_size];
	.loc 1 133 36 is_stmt 0 discriminator 1 view .LVU72
	call	_Znam@PLT	#
.LVL32:
.LBB103:
# main.cpp:135:     for (int i=0; i<in_size; i++) {
	.loc 1 135 20 discriminator 1 view .LVU73
	testl	%r13d, %r13d	# _121
	vxorps	%xmm2, %xmm2, %xmm2	# tmp462
.LBE103:
# main.cpp:133:     float * wy1 = new float[in_size];
	.loc 1 133 36 discriminator 1 view .LVU74
	movq	%rax, 16(%rsp)	# tmp457, %sfp
.LVL33:
	.loc 1 135 5 is_stmt 1 discriminator 1 view .LVU75
.LBB106:
	.loc 1 135 20 discriminator 1 view .LVU76
	jle	.L10	#,
	movq	%rax, %r10	# tmp457, _87
	leal	-1(%r13), %ecx	#, _417
	movq	%r12, %r11	# argv, argv
	movq	48(%rsp), %rax	# %sfp, _79
	vmovss	.LC0(%rip), %xmm3	#, tmp442
	movq	40(%rsp), %rdx	# %sfp, _81
# main.cpp:135:     for (int i=0; i<in_size; i++) {
	.loc 1 135 20 is_stmt 0 view .LVU77
	xorl	%r13d, %r13d	# ivtmp.97
.LVL34:
	.loc 1 135 20 view .LVU78
	movq	32(%rsp), %r8	# %sfp, _83
	movq	24(%rsp), %r9	# %sfp, _85
	movq	56(%rsp), %r12	# %sfp, _77
.LVL35:
	.loc 1 135 20 view .LVU79
	jmp	.L11	#
.LVL36:
	.p2align 4,,10
	.p2align 3
.L25:
# main.cpp:136:         input[i] = i + (i > 0) ? input[i - 1] : atof(argv[3]);
	.loc 1 136 32 discriminator 1 view .LVU80
	vmovss	-4(%rbx,%r13,4), %xmm0	# MEM[base: _71, index: ivtmp.97_104, step: 4, offset: -4B], iftmp.20_51
.L9:
# main.cpp:136:         input[i] = i + (i > 0) ? input[i - 1] : atof(argv[3]);
	.loc 1 136 18 discriminator 4 view .LVU81
	vmovss	%xmm0, (%rbx,%r13,4)	# iftmp.20_51, MEM[base: _71, index: ivtmp.97_104, step: 4, offset: 0B]
	.loc 1 137 9 is_stmt 1 discriminator 4 view .LVU82
# main.cpp:137:         ix0[i] = int32_t(i * scale);
	.loc 1 137 28 is_stmt 0 discriminator 4 view .LVU83
	vcvtsi2ssl	%r14d, %xmm2, %xmm0	# i, tmp462, tmp464
	vmulss	128(%rsp), %xmm0, %xmm1	# %sfp, tmp392, _19
# main.cpp:137:         ix0[i] = int32_t(i * scale);
	.loc 1 137 16 discriminator 4 view .LVU84
	movq	184(%rsp), %rdi	# %sfp, _73
# main.cpp:137:         ix0[i] = int32_t(i * scale);
	.loc 1 137 18 discriminator 4 view .LVU85
	vcvttss2sil	%xmm1, %esi	# _19, _21
# main.cpp:139:         wx0[i] = i * scale - ix0[i];
	.loc 1 139 28 discriminator 4 view .LVU86
	vcvtsi2ssl	%esi, %xmm2, %xmm0	# _21, tmp462, tmp465
# main.cpp:137:         ix0[i] = int32_t(i * scale);
	.loc 1 137 16 discriminator 4 view .LVU87
	movl	%esi, (%rdi,%r13,4)	# _21, MEM[base: _73, index: ivtmp.97_104, step: 4, offset: 0B]
	.loc 1 138 9 is_stmt 1 discriminator 4 view .LVU88
# main.cpp:138:         ix1[i] = ix0[i] + 1;
	.loc 1 138 25 is_stmt 0 discriminator 4 view .LVU89
	leal	1(%rsi), %edi	#, _23
# main.cpp:142:         iy0[i] = int32_t(i * scale);
	.loc 1 142 16 discriminator 4 view .LVU90
	movl	%esi, (%r12,%r13,4)	# _21, MEM[base: _77, index: ivtmp.97_104, step: 4, offset: 0B]
	leaq	1(%r13), %rsi	#, ivtmp.97
# main.cpp:138:         ix1[i] = ix0[i] + 1;
	.loc 1 138 16 discriminator 4 view .LVU91
	movl	%edi, (%r15,%r13,4)	# _23, MEM[base: _75, index: ivtmp.97_104, step: 4, offset: 0B]
	.loc 1 139 9 is_stmt 1 discriminator 4 view .LVU92
# main.cpp:143:         iy1[i] = iy0[i] + 1;
	.loc 1 143 16 is_stmt 0 discriminator 4 view .LVU93
	movl	%edi, (%rax,%r13,4)	# _23, MEM[base: _79, index: ivtmp.97_104, step: 4, offset: 0B]
# main.cpp:139:         wx0[i] = i * scale - ix0[i];
	.loc 1 139 28 discriminator 4 view .LVU94
	vsubss	%xmm0, %xmm1, %xmm0	# tmp393, _19, _26
# main.cpp:140:         wx1[i] = 1.0 - wx0[i];
	.loc 1 140 16 discriminator 4 view .LVU95
	vsubss	%xmm0, %xmm3, %xmm1	# _26, tmp442, _28
# main.cpp:139:         wx0[i] = i * scale - ix0[i];
	.loc 1 139 16 discriminator 4 view .LVU96
	vmovss	%xmm0, (%rdx,%r13,4)	# _26, MEM[base: _81, index: ivtmp.97_104, step: 4, offset: 0B]
	.loc 1 140 9 is_stmt 1 discriminator 4 view .LVU97
# main.cpp:144:         wy0[i] = i * scale - iy0[i];
	.loc 1 144 16 is_stmt 0 discriminator 4 view .LVU98
	vmovss	%xmm0, (%r9,%r13,4)	# _26, MEM[base: _85, index: ivtmp.97_104, step: 4, offset: 0B]
# main.cpp:140:         wx1[i] = 1.0 - wx0[i];
	.loc 1 140 16 discriminator 4 view .LVU99
	vmovss	%xmm1, (%r8,%r13,4)	# _28, MEM[base: _83, index: ivtmp.97_104, step: 4, offset: 0B]
	.loc 1 142 9 is_stmt 1 discriminator 4 view .LVU100
	.loc 1 143 9 discriminator 4 view .LVU101
	.loc 1 144 9 discriminator 4 view .LVU102
	.loc 1 145 9 discriminator 4 view .LVU103
# main.cpp:145:         wy1[i] = 1.0 - wy0[i];
	.loc 1 145 16 is_stmt 0 discriminator 4 view .LVU104
	vmovss	%xmm1, (%r10,%r13,4)	# _28, MEM[base: _87, index: ivtmp.97_104, step: 4, offset: 0B]
	.loc 1 135 5 is_stmt 1 discriminator 4 view .LVU105
.LVL37:
	.loc 1 135 20 discriminator 4 view .LVU106
	cmpq	%rcx, %r13	# _417, ivtmp.97
	je	.L20	#,
	.loc 1 135 20 is_stmt 0 discriminator 4 view .LVU107
	movq	%rsi, %r13	# ivtmp.97, ivtmp.97
.LVL38:
.L11:
# main.cpp:136:         input[i] = i + (i > 0) ? input[i - 1] : atof(argv[3]);
	.loc 1 136 27 view .LVU108
	xorl	%esi, %esi	# tmp388
	testl	%r13d, %r13d	# ivtmp.97
	movl	%r13d, %r14d	# ivtmp.97, i
.LVL39:
	.loc 1 136 9 is_stmt 1 view .LVU109
# main.cpp:136:         input[i] = i + (i > 0) ? input[i - 1] : atof(argv[3]);
	.loc 1 136 27 is_stmt 0 view .LVU110
	setg	%sil	#, tmp388
# main.cpp:136:         input[i] = i + (i > 0) ? input[i - 1] : atof(argv[3]);
	.loc 1 136 32 view .LVU111
	addl	%r13d, %esi	# ivtmp.97, tmp388
	jne	.L25	#,
.LVL40:
.LBB104:
.LBI104:
	.file 3 "/usr/include/x86_64-linux-gnu/bits/stdlib-float.h"
	.loc 3 25 1 is_stmt 1 discriminator 2 view .LVU112
.LBB105:
	.loc 3 27 3 discriminator 2 view .LVU113
# /usr/include/x86_64-linux-gnu/bits/stdlib-float.h:27:   return strtod (__nptr, (char **) NULL);
	.loc 3 27 17 is_stmt 0 discriminator 2 view .LVU114
	movq	24(%r11), %rdi	# MEM[(char * *)argv_55(D) + 24B], MEM[(char * *)argv_55(D) + 24B]
	xorl	%esi, %esi	#
	movq	%rcx, 72(%rsp)	# _417, %sfp
	movq	%r10, 80(%rsp)	# _87, %sfp
	movq	%r9, 88(%rsp)	# _85, %sfp
	movq	%r8, 160(%rsp)	# _83, %sfp
	movq	%rdx, 168(%rsp)	# _81, %sfp
	movq	%rax, 176(%rsp)	# _79, %sfp
	movq	%r11, 96(%rsp)	# argv, %sfp
	call	strtod@PLT	#
.LVL41:
	.loc 3 27 17 discriminator 2 view .LVU115
.LBE105:
.LBE104:
# main.cpp:136:         input[i] = i + (i > 0) ? input[i - 1] : atof(argv[3]);
	.loc 1 136 32 discriminator 2 view .LVU116
	movq	72(%rsp), %rcx	# %sfp, _417
	movq	80(%rsp), %r10	# %sfp, _87
	vxorps	%xmm2, %xmm2, %xmm2	# tmp462
	movq	88(%rsp), %r9	# %sfp, _85
	movq	160(%rsp), %r8	# %sfp, _83
	vcvtsd2ss	%xmm0, %xmm0, %xmm0	# tmp460, iftmp.20_51
	movq	168(%rsp), %rdx	# %sfp, _81
	movq	176(%rsp), %rax	# %sfp, _79
	vmovss	.LC0(%rip), %xmm3	#, tmp442
	movq	96(%rsp), %r11	# %sfp, argv
	jmp	.L9	#
.LVL42:
	.p2align 4,,10
	.p2align 3
.L20:
	.loc 1 136 32 discriminator 2 view .LVU117
	movq	%r11, %r12	# argv, argv
.LVL43:
.L10:
	.loc 1 136 32 discriminator 2 view .LVU118
	vmovq	64(%rsp), %xmm7	# %sfp, _64
	vmovq	56(%rsp), %xmm5	# %sfp, _77
.LBE106:
# main.cpp:148:     char ** data = new char*[10];
	.loc 1 148 32 view .LVU119
	movl	$80, %edi	#,
	vpinsrq	$1, 24(%rsp), %xmm5, %xmm0	# %sfp, _77, tmp380
	vmovq	48(%rsp), %xmm4	# %sfp, _79
	vpinsrq	$1, %rbx, %xmm7, %xmm1	# _71, _64, tmp381
	vmovq	184(%rsp), %xmm7	# %sfp, _73
	vpinsrq	$1, 40(%rsp), %xmm7, %xmm2	# %sfp, _73, tmp383
	vinserti128	$0x1, %xmm0, %ymm1, %ymm1	# tmp380, tmp381, tmp379
	vpinsrq	$1, 16(%rsp), %xmm4, %xmm0	# %sfp, _79, tmp384
	vmovdqa	%ymm1, 96(%rsp)	# tmp379, %sfp
	vinserti128	$0x1, %xmm2, %ymm0, %ymm0	# tmp383, tmp384, tmp382
	vmovdqa	%ymm0, 128(%rsp)	# tmp382, %sfp
.LVL44:
	.loc 1 148 5 is_stmt 1 view .LVU120
# main.cpp:148:     char ** data = new char*[10];
	.loc 1 148 32 is_stmt 0 view .LVU121
	vzeroupper
	call	_Znam@PLT	#
.LVL45:
	.loc 1 149 5 is_stmt 1 view .LVU122
	.loc 1 150 5 view .LVU123
	.loc 1 151 5 view .LVU124
	.loc 1 152 5 view .LVU125
	.loc 1 153 5 view .LVU126
	.loc 1 154 5 view .LVU127
	.loc 1 155 5 view .LVU128
	.loc 1 156 5 view .LVU129
# main.cpp:149:     data[0] = (char *) output;
	.loc 1 149 13 is_stmt 0 view .LVU130
	vmovdqa	96(%rsp), %ymm1	# %sfp, tmp379
# main.cpp:158:     data[9] = (char *) wx1;
	.loc 1 158 13 view .LVU131
	movq	32(%rsp), %rcx	# %sfp, _83
# main.cpp:160:     int64_t * strides = new int64_t[10];
	.loc 1 160 39 view .LVU132
	movl	$80, %edi	#,
# main.cpp:149:     data[0] = (char *) output;
	.loc 1 149 13 view .LVU133
	vmovdqa	128(%rsp), %ymm0	# %sfp, tmp382
# main.cpp:157:     data[8] = (char *) ix1;
	.loc 1 157 13 view .LVU134
	movq	%r15, 64(%rax)	# _75, MEM[(char * *)_101 + 64B]
# main.cpp:158:     data[9] = (char *) wx1;
	.loc 1 158 13 view .LVU135
	movq	%rcx, 72(%rax)	# _83, MEM[(char * *)_101 + 72B]
# main.cpp:149:     data[0] = (char *) output;
	.loc 1 149 13 view .LVU136
	vextracti128	$0x1, %ymm1, 16(%rax)	# tmp379, MEM[(char * *)_101]
	vmovups	%xmm1, (%rax)	# tmp379, MEM[(char * *)_101]
	vextracti128	$0x1, %ymm0, 48(%rax)	# tmp382, MEM[(char * *)_101 + 32B]
	.loc 1 157 5 is_stmt 1 view .LVU137
	.loc 1 158 5 view .LVU138
	.loc 1 160 5 view .LVU139
# main.cpp:149:     data[0] = (char *) output;
	.loc 1 149 13 is_stmt 0 view .LVU140
	vmovups	%xmm0, 32(%rax)	# tmp382, MEM[(char * *)_101 + 32B]
# main.cpp:160:     int64_t * strides = new int64_t[10];
	.loc 1 160 39 view .LVU141
	vzeroupper
	xorl	%r14d, %r14d	# ivtmp.95
	call	_Znam@PLT	#
.LVL46:
	.loc 1 160 39 view .LVU142
	movq	%rax, %r13	# tmp459, _113
.LVL47:
	.loc 1 161 5 is_stmt 1 view .LVU143
.LBB107:
	.loc 1 161 20 view .LVU144
	.p2align 4,,10
	.p2align 3
.L7:
	.loc 1 162 9 discriminator 2 view .LVU145
.LBB108:
.LBI108:
	.loc 2 361 1 discriminator 2 view .LVU146
.LBB109:
	.loc 2 363 3 discriminator 2 view .LVU147
# /usr/include/stdlib.h:363:   return (int) strtol (__nptr, (char **) NULL, 10);
	.loc 2 363 23 is_stmt 0 discriminator 2 view .LVU148
	movq	32(%r12,%r14), %rdi	# MEM[base: argv_55(D), index: ivtmp.95_106, offset: 32B], MEM[base: argv_55(D), index: ivtmp.95_106, offset: 32B]
	movl	$10, %edx	#,
	xorl	%esi, %esi	#
	call	strtol@PLT	#
.LVL48:
	.loc 2 363 23 discriminator 2 view .LVU149
.LBE109:
.LBE108:
# main.cpp:162:         strides[i] = atoi(argv[4 + i]);
	.loc 1 162 26 discriminator 2 view .LVU150
	cltq
	movq	%rax, 0(%r13,%r14)	# _124, MEM[base: _113, index: ivtmp.95_106, offset: 0B]
	.loc 1 161 5 is_stmt 1 discriminator 2 view .LVU151
	.loc 1 161 20 discriminator 2 view .LVU152
	addq	$8, %r14	#, ivtmp.95
	cmpq	$80, %r14	#, ivtmp.95
	jne	.L7	#,
.LBE107:
	.loc 1 164 5 view .LVU153
.LBB110:
.LBB111:
# main.cpp:94:     if ((strides[0] == sizeof(scalar_t) && strides[1] == sizeof(scalar_t) &&
	.loc 1 94 41 is_stmt 0 view .LVU154
	cmpq	$4, 8(%r13)	#, MEM[(int64_t *)_113 + 8B]
.LBE111:
.LBE110:
# main.cpp:164:     strides[0] = sizeof(float);
	.loc 1 164 16 view .LVU155
	movq	$4, 0(%r13)	#, *_113
	.loc 1 178 5 is_stmt 1 view .LVU156
.LVL49:
	.loc 1 181 5 view .LVU157
.LBB242:
.LBI110:
	.loc 1 85 6 view .LVU158
.LBB238:
# main.cpp:94:     if ((strides[0] == sizeof(scalar_t) && strides[1] == sizeof(scalar_t) &&
	.loc 1 94 41 is_stmt 0 view .LVU159
	je	.L12	#,
.L13:
.LVL50:
	.loc 1 94 41 view .LVU160
.LBE238:
.LBE242:
	.loc 1 183 5 is_stmt 1 view .LVU161
# main.cpp:183:     return int(data[0][0] + data[0][1]);
	.loc 1 183 25 is_stmt 0 view .LVU162
	movq	64(%rsp), %rcx	# %sfp, _64
	movsbl	(%rcx), %eax	# MEM[(char *)_64], MEM[(char *)_64]
# main.cpp:183:     return int(data[0][0] + data[0][1]);
	.loc 1 183 38 view .LVU163
	movsbl	1(%rcx), %edx	# MEM[(char *)_64 + 1B], MEM[(char *)_64 + 1B]
# main.cpp:184: }
	.loc 1 184 1 view .LVU164
	leaq	-40(%rbp), %rsp	#,
.LVL51:
	.loc 1 184 1 view .LVU165
	popq	%rbx	#
.LVL52:
	.loc 1 184 1 view .LVU166
	popq	%r12	#
# main.cpp:183:     return int(data[0][0] + data[0][1]);
	.loc 1 183 39 view .LVU167
	addl	%edx, %eax	# MEM[(char *)_64 + 1B], tmp397
# main.cpp:184: }
	.loc 1 184 1 view .LVU168
	popq	%r13	#
	popq	%r14	#
	popq	%r15	#
	popq	%rbp	#
	.cfi_remember_state
	.cfi_def_cfa 7, 8
.LVL53:
	.loc 1 184 1 view .LVU169
	ret	
.LVL54:
.L12:
	.cfi_restore_state
.LBB243:
.LBB239:
.LBB112:
.LBI112:
	.loc 1 85 6 is_stmt 1 view .LVU170
.LBB113:
.LBI113:
	.loc 1 80 20 view .LVU171
.LBB114:
.LBI114:
	.loc 1 66 22 view .LVU172
.LBB115:
.LBI115:
	.loc 1 53 20 view .LVU173
.LBB116:
	.loc 1 54 3 view .LVU174
# main.cpp:54:   return (strides[0] == 0) && (strides[1] == 0) && (strides[2] == 0) && (strides[3] == 0);
	.loc 1 54 70 is_stmt 0 view .LVU175
	cmpq	$0, 16(%r13)	#, MEM[(const int64_t *)_113 + 16B]
	jne	.L13	#,
# main.cpp:54:   return (strides[0] == 0) && (strides[1] == 0) && (strides[2] == 0) && (strides[3] == 0);
	.loc 1 54 28 view .LVU176
	cmpq	$0, 24(%r13)	#, MEM[(const int64_t *)_113 + 24B]
	jne	.L13	#,
# main.cpp:54:   return (strides[0] == 0) && (strides[1] == 0) && (strides[2] == 0) && (strides[3] == 0);
	.loc 1 54 49 view .LVU177
	cmpq	$0, 32(%r13)	#, MEM[(const int64_t *)_113 + 32B]
	jne	.L13	#,
# main.cpp:54:   return (strides[0] == 0) && (strides[1] == 0) && (strides[2] == 0) && (strides[3] == 0);
	.loc 1 54 70 view .LVU178
	cmpq	$0, 40(%r13)	#, MEM[(const int64_t *)_113 + 40B]
	jne	.L13	#,
.LVL55:
	.loc 1 54 70 view .LVU179
.LBE116:
.LBE115:
.LBB117:
.LBI117:
	.loc 1 74 22 is_stmt 1 view .LVU180
.LBB118:
.LBI118:
	.loc 1 53 20 view .LVU181
.LBB119:
	.loc 1 54 3 view .LVU182
# main.cpp:54:   return (strides[0] == 0) && (strides[1] == 0) && (strides[2] == 0) && (strides[3] == 0);
	.loc 1 54 70 is_stmt 0 view .LVU183
	cmpq	$0, 48(%r13)	#, MEM[(const int64_t *)_113 + 48B]
	jne	.L13	#,
.LVL56:
	.loc 1 54 70 view .LVU184
.LBE119:
.LBE118:
.LBE117:
.LBB120:
.LBI120:
	.loc 1 66 22 is_stmt 1 view .LVU185
.LBB121:
.LBB122:
.LBB123:
# main.cpp:54:   return (strides[0] == 0) && (strides[1] == 0) && (strides[2] == 0) && (strides[3] == 0);
	.loc 1 54 28 is_stmt 0 view .LVU186
	cmpq	$0, 56(%r13)	#, MEM[(const int64_t *)_113 + 56B]
	jne	.L13	#,
# main.cpp:54:   return (strides[0] == 0) && (strides[1] == 0) && (strides[2] == 0) && (strides[3] == 0);
	.loc 1 54 49 view .LVU187
	cmpq	$0, 64(%r13)	#, MEM[(const int64_t *)_113 + 64B]
	jne	.L13	#,
# main.cpp:54:   return (strides[0] == 0) && (strides[1] == 0) && (strides[2] == 0) && (strides[3] == 0);
	.loc 1 54 83 view .LVU188
	movq	72(%r13), %rax	# MEM[(const int64_t *)_113 + 72B], tmp.45
# main.cpp:54:   return (strides[0] == 0) && (strides[1] == 0) && (strides[2] == 0) && (strides[3] == 0);
	.loc 1 54 70 view .LVU189
	testq	%rax, %rax	# tmp.45
	jne	.L13	#,
.LBE123:
.LBE122:
.LBE121:
.LBE120:
.LBE114:
.LBE113:
.LBE112:
.LBE239:
.LBE243:
# main.cpp:181:     ti_cpu_upsample_linear<float, int32_t, 2>(data, strides, n);
	.loc 1 181 46 view .LVU190
	movslq	12(%rsp), %rsi	# %sfp, _42
.LVL57:
.LBB244:
.LBB240:
.LBB236:
.LBB124:
.LBB125:
.LBB126:
	.loc 1 47 25 is_stmt 1 view .LVU191
	testq	%rsi, %rsi	# _42
	jle	.L13	#,
.LBB127:
.LBB128:
.LBB129:
# main.cpp:17:         scalar_t t1 = InterpLinear<n - 1, scalar_t, index_t>::eval(src + i1, &data[4], &strides[4], i);
	.loc 1 17 74 is_stmt 0 view .LVU192
	movq	48(%rsp), %r11	# %sfp, _79
# main.cpp:16:         scalar_t t0 = InterpLinear<n - 1, scalar_t, index_t>::eval(src + i0, &data[4], &strides[4], i);
	.loc 1 16 74 view .LVU193
	movq	56(%rsp), %rcx	# %sfp, _77
	leaq	-1(%rsi), %r9	#, tmp404
# main.cpp:17:         scalar_t t1 = InterpLinear<n - 1, scalar_t, index_t>::eval(src + i1, &data[4], &strides[4], i);
	.loc 1 17 74 view .LVU194
	movslq	(%r11), %r8	# MEM[(int *)_79], _191
	movq	24(%rsp), %r11	# %sfp, _85
# main.cpp:16:         scalar_t t0 = InterpLinear<n - 1, scalar_t, index_t>::eval(src + i0, &data[4], &strides[4], i);
	.loc 1 16 74 view .LVU195
	movslq	(%rcx), %rdi	# MEM[(int *)_77], _188
.LBB130:
.LBB131:
# main.cpp:30:         scalar_t t0 = *(scalar_t *)&src[i0];
	.loc 1 30 41 view .LVU196
	movq	184(%rsp), %rcx	# %sfp, _73
	vmovss	(%r11), %xmm6	# *_85, pretmp_288
	movq	16(%rsp), %r11	# %sfp, _87
	movslq	(%rcx), %rdx	# MEM[(int *)_73], _254
# main.cpp:31:         scalar_t t1 = *(scalar_t *)&src[i1];
	.loc 1 31 41 view .LVU197
	movslq	(%r15), %rcx	# MEM[(int *)_75], _257
	vmovss	(%r11), %xmm9	# *_87, pretmp_290
	movq	40(%rsp), %r11	# %sfp, _81
	vmovss	(%r11), %xmm2	# *_81, pretmp_292
	movq	32(%rsp), %r11	# %sfp, _83
	vmovss	(%r11), %xmm5	# *_83, pretmp_294
	cmpq	$6, %r9	#, tmp404
	jbe	.L14	#,
	movq	%rsi, %r9	# _42, bnd.43
	leaq	(%rdi,%rdx), %r13	#, tmp405
	leaq	(%rdi,%rcx), %r12	#, tmp406
.LBE131:
.LBE130:
# main.cpp:17:         scalar_t t1 = InterpLinear<n - 1, scalar_t, index_t>::eval(src + i1, &data[4], &strides[4], i);
	.loc 1 17 74 view .LVU198
	movq	64(%rsp), %r14	# %sfp, _64
	leaq	(%r8,%rdx), %r11	#, tmp409
	leaq	(%r8,%rcx), %r10	#, tmp410
	shrq	$3, %r9	#, bnd.43
	addq	%rbx, %r13	# _71, vectp.47
	addq	%rbx, %r12	# _71, vectp.50
	vbroadcastss	%xmm2, %ymm4	# pretmp_292, vect_cst__234
	vbroadcastss	%xmm5, %ymm3	# pretmp_294, vect_cst__232
	addq	%rbx, %r11	# _71, vectp.56
	addq	%rbx, %r10	# _71, vectp.59
	vbroadcastss	%xmm6, %ymm8	# pretmp_288, vect_cst__169
	vbroadcastss	%xmm9, %ymm7	# pretmp_290, vect_cst__166
	salq	$5, %r9	#, _107
.LVL58:
.L16:
	.loc 1 17 74 view .LVU199
.LBE129:
.LBE128:
.LBI127:
	.loc 1 37 24 is_stmt 1 view .LVU200
.LBB216:
.LBI128:
	.loc 1 10 28 view .LVU201
.LBB207:
.LBB147:
.LBI130:
	.loc 1 25 28 view .LVU202
	.loc 1 25 28 is_stmt 0 view .LVU203
.LBE147:
.LBB148:
.LBB149:
# main.cpp:32:         return t0 * w0 + t1 * w1;
	.loc 1 32 29 view .LVU204
	vmulps	(%r10,%rax), %ymm3, %ymm1	# MEM[base: vectp.59_190, index: ivtmp.75_109, offset: 0B], vect_cst__232, vect__228.62
.LBE149:
.LBE148:
.LBB164:
.LBB132:
	vmulps	(%r12,%rax), %ymm3, %ymm0	# MEM[base: vectp.50_243, index: ivtmp.75_109, offset: 0B], vect_cst__232, vect__261.53
.LBE132:
.LBE164:
.LBB165:
.LBB150:
# main.cpp:32:         return t0 * w0 + t1 * w1;
	.loc 1 32 31 view .LVU205
	vfmadd231ps	(%r11,%rax), %ymm4, %ymm1	# MEM[base: vectp.56_214, index: ivtmp.75_109, offset: 0B], vect_cst__234, vect__229.63
.LBE150:
.LBE165:
.LBB166:
.LBB133:
	vfmadd231ps	0(%r13,%rax), %ymm4, %ymm0	# MEM[base: vectp.47_252, index: ivtmp.75_109, offset: 0B], vect_cst__234, vect__262.54
.LVL59:
	.loc 1 32 31 view .LVU206
.LBE133:
.LBE166:
.LBB167:
.LBI148:
	.loc 1 25 28 is_stmt 1 view .LVU207
	.loc 1 25 28 is_stmt 0 view .LVU208
.LBE167:
# main.cpp:19:         return t0 * w0 + t1 * w1;
	.loc 1 19 29 view .LVU209
	vmulps	%ymm1, %ymm7, %ymm1	# vect__229.63, vect_cst__166, vect__195.65
# main.cpp:19:         return t0 * w0 + t1 * w1;
	.loc 1 19 31 view .LVU210
	vfmadd132ps	%ymm8, %ymm1, %ymm0	# vect_cst__169, vect__195.65, vect__196.66
	.loc 1 19 31 view .LVU211
.LBE207:
.LBE216:
.LBE127:
# main.cpp:48:     *(scalar_t*)&dst[i * strides[0]] = interp_linear<out_ndims, scalar_t, index_t>(
	.loc 1 48 5 view .LVU212
	vmovups	%ymm0, (%r14,%rax)	# vect__196.66, MEM[base: _64, index: ivtmp.75_109, offset: 0B]
	.loc 1 47 3 is_stmt 1 view .LVU213
	.loc 1 47 25 view .LVU214
	addq	$32, %rax	#, ivtmp.75
	cmpq	%rax, %r9	# ivtmp.75, _107
	jne	.L16	#,
	movq	%rsi, %rax	# _42, tmp.45
	andq	$-8, %rax	#, tmp.45
	testb	$7, %sil	#, _42
	je	.L21	#,
	vzeroupper
.L14:
.LVL60:
# main.cpp:49:         src + i * strides[1], &data[2], &strides[2], i);
	.loc 1 49 17 is_stmt 0 view .LVU215
	leaq	0(,%rax,4), %r10	#, _155
# main.cpp:48:     *(scalar_t*)&dst[i * strides[0]] = interp_linear<out_ndims, scalar_t, index_t>(
	.loc 1 48 5 view .LVU216
	movq	64(%rsp), %r15	# %sfp, _64
# main.cpp:48:     *(scalar_t*)&dst[i * strides[0]] = interp_linear<out_ndims, scalar_t, index_t>(
	.loc 1 48 83 view .LVU217
	leaq	(%rbx,%r10), %r9	#, _159
.LVL61:
.LBB225:
	.loc 1 37 24 is_stmt 1 view .LVU218
.LBB217:
	.loc 1 10 28 view .LVU219
.LBB208:
# main.cpp:16:         scalar_t t0 = InterpLinear<n - 1, scalar_t, index_t>::eval(src + i0, &data[4], &strides[4], i);
	.loc 1 16 67 is_stmt 0 view .LVU220
	leaq	(%r9,%rdi), %r11	#, _255
.LVL62:
.LBB168:
	.loc 1 25 28 is_stmt 1 view .LVU221
	.loc 1 25 28 is_stmt 0 view .LVU222
.LBE168:
# main.cpp:17:         scalar_t t1 = InterpLinear<n - 1, scalar_t, index_t>::eval(src + i1, &data[4], &strides[4], i);
	.loc 1 17 67 view .LVU223
	addq	%r8, %r9	# _191, _222
.LVL63:
.LBB169:
.LBB151:
# main.cpp:32:         return t0 * w0 + t1 * w1;
	.loc 1 32 29 view .LVU224
	vmulss	(%r9,%rcx), %xmm5, %xmm1	# MEM[(float *)_226], pretmp_294, tmp422
.LBE151:
.LBE169:
.LBB170:
.LBB134:
	vmulss	(%r11,%rcx), %xmm5, %xmm0	# MEM[(float *)_259], pretmp_294, tmp421
.LBE134:
.LBE170:
.LBB171:
.LBB152:
# main.cpp:32:         return t0 * w0 + t1 * w1;
	.loc 1 32 31 view .LVU225
	vfmadd231ss	(%r9,%rdx), %xmm2, %xmm1	# MEM[(float *)_223], pretmp_292, _194
.LBE152:
.LBE171:
.LBE208:
.LBE217:
.LBE225:
# main.cpp:47:   for (int64_t i = 0; i < n; i++) {
	.loc 1 47 3 view .LVU226
	leaq	1(%rax), %r9	#, i
.LBB226:
.LBB218:
.LBB209:
.LBB172:
.LBB135:
# main.cpp:32:         return t0 * w0 + t1 * w1;
	.loc 1 32 31 view .LVU227
	vfmadd231ss	(%r11,%rdx), %xmm2, %xmm0	# MEM[(float *)_256], pretmp_292, _192
.LVL64:
	.loc 1 32 31 view .LVU228
.LBE135:
.LBE172:
.LBB173:
	.loc 1 25 28 is_stmt 1 view .LVU229
	.loc 1 25 28 is_stmt 0 view .LVU230
.LBE173:
# main.cpp:19:         return t0 * w0 + t1 * w1;
	.loc 1 19 29 view .LVU231
	vmulss	%xmm9, %xmm1, %xmm1	# pretmp_290, _194, tmp423
.LVL65:
# main.cpp:19:         return t0 * w0 + t1 * w1;
	.loc 1 19 31 view .LVU232
	vfmadd132ss	%xmm6, %xmm1, %xmm0	# pretmp_288, tmp423, _161
.LVL66:
	.loc 1 19 31 view .LVU233
.LBE209:
.LBE218:
.LBE226:
# main.cpp:48:     *(scalar_t*)&dst[i * strides[0]] = interp_linear<out_ndims, scalar_t, index_t>(
	.loc 1 48 5 view .LVU234
	vmovss	%xmm0, (%r15,%r10)	# _161, MEM[(float *)_189]
	.loc 1 47 3 is_stmt 1 view .LVU235
.LVL67:
	.loc 1 47 25 view .LVU236
	cmpq	%r9, %rsi	# i, _42
	jle	.L13	#,
# main.cpp:49:         src + i * strides[1], &data[2], &strides[2], i);
	.loc 1 49 17 is_stmt 0 view .LVU237
	salq	$2, %r9	#, _149
.LVL68:
# main.cpp:48:     *(scalar_t*)&dst[i * strides[0]] = interp_linear<out_ndims, scalar_t, index_t>(
	.loc 1 48 83 view .LVU238
	leaq	(%rbx,%r9), %r10	#, _148
.LVL69:
.LBB227:
	.loc 1 37 24 is_stmt 1 view .LVU239
.LBB219:
	.loc 1 10 28 view .LVU240
.LBB210:
# main.cpp:16:         scalar_t t0 = InterpLinear<n - 1, scalar_t, index_t>::eval(src + i0, &data[4], &strides[4], i);
	.loc 1 16 67 is_stmt 0 view .LVU241
	leaq	(%r10,%rdi), %r11	#, _146
.LVL70:
.LBB174:
	.loc 1 25 28 is_stmt 1 view .LVU242
	.loc 1 25 28 is_stmt 0 view .LVU243
.LBE174:
# main.cpp:17:         scalar_t t1 = InterpLinear<n - 1, scalar_t, index_t>::eval(src + i1, &data[4], &strides[4], i);
	.loc 1 17 67 view .LVU244
	addq	%r8, %r10	# _191, _50
.LVL71:
.LBB175:
.LBB153:
# main.cpp:32:         return t0 * w0 + t1 * w1;
	.loc 1 32 29 view .LVU245
	vmulss	(%r10,%rcx), %xmm5, %xmm1	# MEM[(float *)_68], pretmp_294, tmp425
.LBE153:
.LBE175:
.LBB176:
.LBB136:
	vmulss	(%r11,%rcx), %xmm5, %xmm0	# MEM[(float *)_135], pretmp_294, tmp424
.LBE136:
.LBE176:
.LBB177:
.LBB154:
# main.cpp:32:         return t0 * w0 + t1 * w1;
	.loc 1 32 31 view .LVU246
	vfmadd231ss	(%r10,%rdx), %xmm2, %xmm1	# MEM[(float *)_49], pretmp_292, _283
.LBE154:
.LBE177:
.LBB178:
.LBB137:
	vfmadd231ss	(%r11,%rdx), %xmm2, %xmm0	# MEM[(float *)_142], pretmp_292, _52
.LVL72:
	.loc 1 32 31 view .LVU247
.LBE137:
.LBE178:
.LBB179:
	.loc 1 25 28 is_stmt 1 view .LVU248
	.loc 1 25 28 is_stmt 0 view .LVU249
.LBE179:
# main.cpp:19:         return t0 * w0 + t1 * w1;
	.loc 1 19 29 view .LVU250
	vmulss	%xmm9, %xmm1, %xmm1	# pretmp_290, _283, tmp426
.LVL73:
# main.cpp:19:         return t0 * w0 + t1 * w1;
	.loc 1 19 31 view .LVU251
	vfmadd132ss	%xmm6, %xmm1, %xmm0	# pretmp_288, tmp426, _280
.LVL74:
	.loc 1 19 31 view .LVU252
.LBE210:
.LBE219:
.LBE227:
# main.cpp:48:     *(scalar_t*)&dst[i * strides[0]] = interp_linear<out_ndims, scalar_t, index_t>(
	.loc 1 48 5 view .LVU253
	vmovss	%xmm0, (%r15,%r9)	# _280, MEM[(float *)_147]
	.loc 1 47 3 is_stmt 1 view .LVU254
	leaq	2(%rax), %r9	#, i
.LVL75:
	.loc 1 47 25 view .LVU255
	cmpq	%r9, %rsi	# i, _42
	jle	.L13	#,
# main.cpp:49:         src + i * strides[1], &data[2], &strides[2], i);
	.loc 1 49 17 is_stmt 0 view .LVU256
	salq	$2, %r9	#, _220
.LVL76:
# main.cpp:48:     *(scalar_t*)&dst[i * strides[0]] = interp_linear<out_ndims, scalar_t, index_t>(
	.loc 1 48 83 view .LVU257
	leaq	(%rbx,%r9), %r10	#, _215
.LVL77:
.LBB228:
	.loc 1 37 24 is_stmt 1 view .LVU258
.LBB220:
	.loc 1 10 28 view .LVU259
.LBB211:
# main.cpp:16:         scalar_t t0 = InterpLinear<n - 1, scalar_t, index_t>::eval(src + i0, &data[4], &strides[4], i);
	.loc 1 16 67 is_stmt 0 view .LVU260
	leaq	(%r10,%rdi), %r11	#, _217
.LVL78:
.LBB180:
	.loc 1 25 28 is_stmt 1 view .LVU261
	.loc 1 25 28 is_stmt 0 view .LVU262
.LBE180:
# main.cpp:17:         scalar_t t1 = InterpLinear<n - 1, scalar_t, index_t>::eval(src + i1, &data[4], &strides[4], i);
	.loc 1 17 67 view .LVU263
	addq	%r8, %r10	# _191, _150
.LVL79:
.LBB181:
.LBB155:
# main.cpp:32:         return t0 * w0 + t1 * w1;
	.loc 1 32 29 view .LVU264
	vmulss	(%r10,%rcx), %xmm5, %xmm1	# MEM[(float *)_10], pretmp_294, tmp428
.LBE155:
.LBE181:
.LBB182:
.LBB138:
	vmulss	(%r11,%rcx), %xmm5, %xmm0	# MEM[(float *)_211], pretmp_294, tmp427
.LBE138:
.LBE182:
.LBB183:
.LBB156:
# main.cpp:32:         return t0 * w0 + t1 * w1;
	.loc 1 32 31 view .LVU265
	vfmadd231ss	(%r10,%rdx), %xmm2, %xmm1	# MEM[(float *)_134], pretmp_292, _289
.LBE156:
.LBE183:
.LBB184:
.LBB139:
	vfmadd231ss	(%r11,%rdx), %xmm2, %xmm0	# MEM[(float *)_213], pretmp_292, _151
.LVL80:
	.loc 1 32 31 view .LVU266
.LBE139:
.LBE184:
.LBB185:
	.loc 1 25 28 is_stmt 1 view .LVU267
	.loc 1 25 28 is_stmt 0 view .LVU268
.LBE185:
# main.cpp:19:         return t0 * w0 + t1 * w1;
	.loc 1 19 29 view .LVU269
	vmulss	%xmm9, %xmm1, %xmm1	# pretmp_290, _289, tmp429
.LVL81:
# main.cpp:19:         return t0 * w0 + t1 * w1;
	.loc 1 19 31 view .LVU270
	vfmadd132ss	%xmm6, %xmm1, %xmm0	# pretmp_288, tmp429, _295
.LVL82:
	.loc 1 19 31 view .LVU271
.LBE211:
.LBE220:
.LBE228:
# main.cpp:48:     *(scalar_t*)&dst[i * strides[0]] = interp_linear<out_ndims, scalar_t, index_t>(
	.loc 1 48 5 view .LVU272
	vmovss	%xmm0, (%r15,%r9)	# _295, MEM[(float *)_216]
	.loc 1 47 3 is_stmt 1 view .LVU273
	leaq	3(%rax), %r9	#, i
.LVL83:
	.loc 1 47 25 view .LVU274
	cmpq	%r9, %rsi	# i, _42
	jle	.L13	#,
# main.cpp:49:         src + i * strides[1], &data[2], &strides[2], i);
	.loc 1 49 17 is_stmt 0 view .LVU275
	salq	$2, %r9	#, _322
.LVL84:
# main.cpp:48:     *(scalar_t*)&dst[i * strides[0]] = interp_linear<out_ndims, scalar_t, index_t>(
	.loc 1 48 83 view .LVU276
	leaq	(%rbx,%r9), %r10	#, _323
.LVL85:
.LBB229:
	.loc 1 37 24 is_stmt 1 view .LVU277
.LBB221:
	.loc 1 10 28 view .LVU278
.LBB212:
# main.cpp:16:         scalar_t t0 = InterpLinear<n - 1, scalar_t, index_t>::eval(src + i0, &data[4], &strides[4], i);
	.loc 1 16 67 is_stmt 0 view .LVU279
	leaq	(%r10,%rdi), %r11	#, _325
.LVL86:
.LBB186:
	.loc 1 25 28 is_stmt 1 view .LVU280
	.loc 1 25 28 is_stmt 0 view .LVU281
.LBE186:
# main.cpp:17:         scalar_t t1 = InterpLinear<n - 1, scalar_t, index_t>::eval(src + i1, &data[4], &strides[4], i);
	.loc 1 17 67 view .LVU282
	addq	%r8, %r10	# _191, _333
.LVL87:
.LBB187:
.LBB157:
# main.cpp:32:         return t0 * w0 + t1 * w1;
	.loc 1 32 29 view .LVU283
	vmulss	(%r10,%rcx), %xmm5, %xmm1	# MEM[(float *)_336], pretmp_294, tmp431
.LBE157:
.LBE187:
.LBB188:
.LBB140:
	vmulss	(%r11,%rcx), %xmm5, %xmm0	# MEM[(float *)_328], pretmp_294, tmp430
.LBE140:
.LBE188:
.LBB189:
.LBB158:
# main.cpp:32:         return t0 * w0 + t1 * w1;
	.loc 1 32 31 view .LVU284
	vfmadd231ss	(%r10,%rdx), %xmm2, %xmm1	# MEM[(float *)_334], pretmp_292, _340
.LBE158:
.LBE189:
.LBB190:
.LBB141:
	vfmadd231ss	(%r11,%rdx), %xmm2, %xmm0	# MEM[(float *)_326], pretmp_292, _332
.LVL88:
	.loc 1 32 31 view .LVU285
.LBE141:
.LBE190:
.LBB191:
	.loc 1 25 28 is_stmt 1 view .LVU286
	.loc 1 25 28 is_stmt 0 view .LVU287
.LBE191:
# main.cpp:19:         return t0 * w0 + t1 * w1;
	.loc 1 19 29 view .LVU288
	vmulss	%xmm1, %xmm9, %xmm1	# _340, pretmp_290, tmp432
.LVL89:
# main.cpp:19:         return t0 * w0 + t1 * w1;
	.loc 1 19 31 view .LVU289
	vfmadd132ss	%xmm6, %xmm1, %xmm0	# pretmp_288, tmp432, _343
.LVL90:
	.loc 1 19 31 view .LVU290
.LBE212:
.LBE221:
.LBE229:
# main.cpp:48:     *(scalar_t*)&dst[i * strides[0]] = interp_linear<out_ndims, scalar_t, index_t>(
	.loc 1 48 5 view .LVU291
	vmovss	%xmm0, (%r15,%r9)	# _343, MEM[(float *)_324]
	.loc 1 47 3 is_stmt 1 view .LVU292
	leaq	4(%rax), %r9	#, i
.LVL91:
	.loc 1 47 25 view .LVU293
	cmpq	%r9, %rsi	# i, _42
	jle	.L13	#,
# main.cpp:49:         src + i * strides[1], &data[2], &strides[2], i);
	.loc 1 49 17 is_stmt 0 view .LVU294
	salq	$2, %r9	#, _349
.LVL92:
# main.cpp:48:     *(scalar_t*)&dst[i * strides[0]] = interp_linear<out_ndims, scalar_t, index_t>(
	.loc 1 48 83 view .LVU295
	leaq	(%rbx,%r9), %r10	#, _350
.LVL93:
.LBB230:
	.loc 1 37 24 is_stmt 1 view .LVU296
.LBB222:
	.loc 1 10 28 view .LVU297
.LBB213:
# main.cpp:16:         scalar_t t0 = InterpLinear<n - 1, scalar_t, index_t>::eval(src + i0, &data[4], &strides[4], i);
	.loc 1 16 67 is_stmt 0 view .LVU298
	leaq	(%r10,%rdi), %r11	#, _352
.LVL94:
.LBB192:
	.loc 1 25 28 is_stmt 1 view .LVU299
	.loc 1 25 28 is_stmt 0 view .LVU300
.LBE192:
# main.cpp:17:         scalar_t t1 = InterpLinear<n - 1, scalar_t, index_t>::eval(src + i1, &data[4], &strides[4], i);
	.loc 1 17 67 view .LVU301
	addq	%r8, %r10	# _191, _360
.LVL95:
.LBB193:
.LBB159:
# main.cpp:32:         return t0 * w0 + t1 * w1;
	.loc 1 32 29 view .LVU302
	vmulss	(%r10,%rcx), %xmm5, %xmm1	# MEM[(float *)_363], pretmp_294, tmp434
.LBE159:
.LBE193:
.LBB194:
.LBB142:
	vmulss	(%r11,%rcx), %xmm5, %xmm0	# MEM[(float *)_355], pretmp_294, tmp433
.LBE142:
.LBE194:
.LBB195:
.LBB160:
# main.cpp:32:         return t0 * w0 + t1 * w1;
	.loc 1 32 31 view .LVU303
	vfmadd231ss	(%r10,%rdx), %xmm2, %xmm1	# MEM[(float *)_361], pretmp_292, _367
.LBE160:
.LBE195:
.LBB196:
.LBB143:
	vfmadd231ss	(%r11,%rdx), %xmm2, %xmm0	# MEM[(float *)_353], pretmp_292, _359
.LVL96:
	.loc 1 32 31 view .LVU304
.LBE143:
.LBE196:
.LBB197:
	.loc 1 25 28 is_stmt 1 view .LVU305
	.loc 1 25 28 is_stmt 0 view .LVU306
.LBE197:
# main.cpp:19:         return t0 * w0 + t1 * w1;
	.loc 1 19 29 view .LVU307
	vmulss	%xmm1, %xmm9, %xmm1	# _367, pretmp_290, tmp435
.LVL97:
# main.cpp:19:         return t0 * w0 + t1 * w1;
	.loc 1 19 31 view .LVU308
	vfmadd132ss	%xmm6, %xmm1, %xmm0	# pretmp_288, tmp435, _370
.LVL98:
	.loc 1 19 31 view .LVU309
.LBE213:
.LBE222:
.LBE230:
# main.cpp:48:     *(scalar_t*)&dst[i * strides[0]] = interp_linear<out_ndims, scalar_t, index_t>(
	.loc 1 48 5 view .LVU310
	vmovss	%xmm0, (%r15,%r9)	# _370, MEM[(float *)_351]
	.loc 1 47 3 is_stmt 1 view .LVU311
	leaq	5(%rax), %r9	#, i
.LVL99:
	.loc 1 47 25 view .LVU312
	cmpq	%r9, %rsi	# i, _42
	jle	.L13	#,
# main.cpp:49:         src + i * strides[1], &data[2], &strides[2], i);
	.loc 1 49 17 is_stmt 0 view .LVU313
	salq	$2, %r9	#, _376
.LVL100:
# main.cpp:47:   for (int64_t i = 0; i < n; i++) {
	.loc 1 47 3 view .LVU314
	addq	$6, %rax	#, i
.LVL101:
# main.cpp:48:     *(scalar_t*)&dst[i * strides[0]] = interp_linear<out_ndims, scalar_t, index_t>(
	.loc 1 48 83 view .LVU315
	leaq	(%rbx,%r9), %r10	#, _377
.LVL102:
.LBB231:
	.loc 1 37 24 is_stmt 1 view .LVU316
.LBB223:
	.loc 1 10 28 view .LVU317
.LBB214:
# main.cpp:16:         scalar_t t0 = InterpLinear<n - 1, scalar_t, index_t>::eval(src + i0, &data[4], &strides[4], i);
	.loc 1 16 67 is_stmt 0 view .LVU318
	leaq	(%r10,%rdi), %r11	#, _379
.LVL103:
.LBB198:
	.loc 1 25 28 is_stmt 1 view .LVU319
	.loc 1 25 28 is_stmt 0 view .LVU320
.LBE198:
# main.cpp:17:         scalar_t t1 = InterpLinear<n - 1, scalar_t, index_t>::eval(src + i1, &data[4], &strides[4], i);
	.loc 1 17 67 view .LVU321
	addq	%r8, %r10	# _191, _387
.LVL104:
.LBB199:
.LBB161:
# main.cpp:32:         return t0 * w0 + t1 * w1;
	.loc 1 32 29 view .LVU322
	vmulss	(%r10,%rcx), %xmm5, %xmm1	# MEM[(float *)_390], pretmp_294, tmp437
.LBE161:
.LBE199:
.LBB200:
.LBB144:
	vmulss	(%r11,%rcx), %xmm5, %xmm0	# MEM[(float *)_382], pretmp_294, tmp436
.LBE144:
.LBE200:
.LBB201:
.LBB162:
# main.cpp:32:         return t0 * w0 + t1 * w1;
	.loc 1 32 31 view .LVU323
	vfmadd231ss	(%r10,%rdx), %xmm2, %xmm1	# MEM[(float *)_388], pretmp_292, _394
.LBE162:
.LBE201:
.LBB202:
.LBB145:
	vfmadd231ss	(%r11,%rdx), %xmm2, %xmm0	# MEM[(float *)_380], pretmp_292, _386
.LVL105:
	.loc 1 32 31 view .LVU324
.LBE145:
.LBE202:
.LBB203:
	.loc 1 25 28 is_stmt 1 view .LVU325
	.loc 1 25 28 is_stmt 0 view .LVU326
.LBE203:
# main.cpp:19:         return t0 * w0 + t1 * w1;
	.loc 1 19 29 view .LVU327
	vmulss	%xmm1, %xmm9, %xmm1	# _394, pretmp_290, tmp438
.LVL106:
# main.cpp:19:         return t0 * w0 + t1 * w1;
	.loc 1 19 31 view .LVU328
	vfmadd132ss	%xmm6, %xmm1, %xmm0	# pretmp_288, tmp438, _397
.LVL107:
	.loc 1 19 31 view .LVU329
.LBE214:
.LBE223:
.LBE231:
# main.cpp:48:     *(scalar_t*)&dst[i * strides[0]] = interp_linear<out_ndims, scalar_t, index_t>(
	.loc 1 48 5 view .LVU330
	vmovss	%xmm0, (%r15,%r9)	# _397, MEM[(float *)_378]
	.loc 1 47 3 is_stmt 1 view .LVU331
.LVL108:
	.loc 1 47 25 view .LVU332
	cmpq	%rax, %rsi	# i, _42
	jle	.L13	#,
# main.cpp:49:         src + i * strides[1], &data[2], &strides[2], i);
	.loc 1 49 17 is_stmt 0 view .LVU333
	leaq	0(,%rax,4), %rsi	#, _65
# main.cpp:48:     *(scalar_t*)&dst[i * strides[0]] = interp_linear<out_ndims, scalar_t, index_t>(
	.loc 1 48 83 view .LVU334
	leaq	(%rbx,%rsi), %rax	#, _66
.LVL109:
.LBB232:
	.loc 1 37 24 is_stmt 1 view .LVU335
.LBB224:
	.loc 1 10 28 view .LVU336
.LBB215:
# main.cpp:16:         scalar_t t0 = InterpLinear<n - 1, scalar_t, index_t>::eval(src + i0, &data[4], &strides[4], i);
	.loc 1 16 67 is_stmt 0 view .LVU337
	addq	%rax, %rdi	# _66, _310
.LVL110:
.LBB204:
	.loc 1 25 28 is_stmt 1 view .LVU338
	.loc 1 25 28 is_stmt 0 view .LVU339
.LBE204:
# main.cpp:17:         scalar_t t1 = InterpLinear<n - 1, scalar_t, index_t>::eval(src + i1, &data[4], &strides[4], i);
	.loc 1 17 67 view .LVU340
	addq	%r8, %rax	# _191, _302
.LVL111:
.LBB205:
.LBB146:
# main.cpp:32:         return t0 * w0 + t1 * w1;
	.loc 1 32 29 view .LVU341
	vmulss	(%rdi,%rcx), %xmm5, %xmm0	# MEM[(float *)_307], pretmp_294, tmp439
# main.cpp:32:         return t0 * w0 + t1 * w1;
	.loc 1 32 31 view .LVU342
	vmovaps	%xmm0, %xmm1	# tmp439, tmp439
	vfmadd231ss	(%rdi,%rdx), %xmm2, %xmm1	# MEM[(float *)_309], pretmp_292, tmp439
.LVL112:
	.loc 1 32 31 view .LVU343
.LBE146:
.LBE205:
.LBB206:
	.loc 1 25 28 is_stmt 1 view .LVU344
.LBB163:
# main.cpp:32:         return t0 * w0 + t1 * w1;
	.loc 1 32 29 is_stmt 0 view .LVU345
	vmulss	(%rax,%rcx), %xmm5, %xmm0	# MEM[(float *)_299], pretmp_294, tmp440
# main.cpp:32:         return t0 * w0 + t1 * w1;
	.loc 1 32 31 view .LVU346
	vfmadd231ss	(%rax,%rdx), %xmm2, %xmm0	# MEM[(float *)_301], pretmp_292, _287
.LVL113:
	.loc 1 32 31 view .LVU347
.LBE163:
.LBE206:
# main.cpp:19:         return t0 * w0 + t1 * w1;
	.loc 1 19 29 view .LVU348
	vmulss	%xmm9, %xmm0, %xmm0	# pretmp_290, _287, tmp441
.LVL114:
# main.cpp:19:         return t0 * w0 + t1 * w1;
	.loc 1 19 31 view .LVU349
	vfmadd231ss	%xmm1, %xmm6, %xmm0	# _303, pretmp_288, _277
.LVL115:
	.loc 1 19 31 view .LVU350
.LBE215:
.LBE224:
.LBE232:
# main.cpp:48:     *(scalar_t*)&dst[i * strides[0]] = interp_linear<out_ndims, scalar_t, index_t>(
	.loc 1 48 5 view .LVU351
	vmovss	%xmm0, (%r15,%rsi)	# _277, MEM[(float *)_311]
	.loc 1 47 3 is_stmt 1 view .LVU352
	.loc 1 47 25 view .LVU353
	jmp	.L13	#
.L21:
	.loc 1 47 25 is_stmt 0 view .LVU354
	vzeroupper
	jmp	.L13	#
.LVL116:
	.loc 1 47 25 view .LVU355
.LBE126:
.LBE125:
.LBE124:
.LBE236:
.LBE240:
.LBE244:
	.cfi_endproc
	.section	.text.unlikely
	.cfi_startproc
	.type	main.cold, @function
main.cold:
.LFSB35:
.LBB245:
.LBB241:
.LBB237:
.LBB235:
.LBB234:
.LBB233:
.L2:
	.cfi_def_cfa 6, 16
	.cfi_offset 3, -56
	.cfi_offset 6, -16
	.cfi_offset 12, -48
	.cfi_offset 13, -40
	.cfi_offset 14, -32
	.cfi_offset 15, -24
.LBE233:
.LBE234:
.LBE235:
.LBE237:
.LBE241:
.LBE245:
# main.cpp:119:     float * output = new float[out_size];
	.loc 1 119 40 discriminator 2 view -0
	call	__cxa_throw_bad_array_new_length@PLT	#
.LVL117:
	.cfi_endproc
.LFE35:
	.section	.text.startup
	.size	main, .-main
	.section	.text.unlikely
	.size	main.cold, .-main.cold
.LCOLDE1:
	.section	.text.startup
.LHOTE1:
	.section	.rodata.cst4,"aM",@progbits,4
	.align 4
.LC0:
	.long	1065353216
	.text
.Letext0:
	.section	.text.unlikely
.Letext_cold0:
	.file 4 "/usr/include/c++/9/cstdlib"
	.file 5 "/usr/include/c++/9/bits/std_abs.h"
	.file 6 "/usr/include/x86_64-linux-gnu/c++/9/bits/c++config.h"
	.file 7 "/usr/lib/gcc/x86_64-linux-gnu/9/include/stddef.h"
	.file 8 "/usr/include/x86_64-linux-gnu/bits/types.h"
	.file 9 "/usr/include/x86_64-linux-gnu/bits/stdint-intn.h"
	.file 10 "/usr/include/x86_64-linux-gnu/bits/stdlib-bsearch.h"
	.file 11 "/usr/include/x86_64-linux-gnu/bits/stdlib.h"
	.file 12 "/usr/include/c++/9/stdlib.h"
	.file 13 "<built-in>"
	.section	.note.GNU-stack,"",@progbits
	.section	.note.gnu.property,"a"
	.align 8
	.long	 1f - 0f
	.long	 4f - 1f
	.long	 5
0:
	.string	 "GNU"
1:
	.align 8
	.long	 0xc0000002
	.long	 3f - 2f
2:
	.long	 0x3
3:
	.align 8
4:
