	.file	"main.cpp"
# GNU C++14 (Ubuntu 9.3.0-17ubuntu1~20.04) version 9.3.0 (x86_64-linux-gnu)
#	compiled by GNU C version 9.3.0, GMP version 6.2.0, MPFR version 4.0.2, MPC version 1.1.0, isl version isl-0.22.1-GMP

# GGC heuristics: --param ggc-min-expand=100 --param ggc-min-heapsize=131072
# options passed:  -imultiarch x86_64-linux-gnu -D_GNU_SOURCE main.cpp
# -mavx -mfma -mavx2 -mtune=generic -march=x86-64 -auxbase-strip main.s -g
# -O3 -fverbose-asm -fasynchronous-unwind-tables -fstack-protector-strong
# -Wformat -Wformat-security -fstack-clash-protection -fcf-protection
# options enabled:  -fPIC -fPIE -faggressive-loop-optimizations
# -falign-functions -falign-jumps -falign-labels -falign-loops
# -fassume-phsa -fasynchronous-unwind-tables -fauto-inc-dec
# -fbranch-count-reg -fcaller-saves -fcode-hoisting
# -fcombine-stack-adjustments -fcommon -fcompare-elim -fcprop-registers
# -fcrossjumping -fcse-follow-jumps -fdefer-pop
# -fdelete-null-pointer-checks -fdevirtualize -fdevirtualize-speculatively
# -fdwarf2-cfi-asm -fearly-inlining -feliminate-unused-debug-types
# -fexceptions -fexpensive-optimizations -fforward-propagate
# -ffp-int-builtin-inexact -ffunction-cse -fgcse -fgcse-after-reload
# -fgcse-lm -fgnu-runtime -fgnu-unique -fguess-branch-probability
# -fhoist-adjacent-loads -fident -fif-conversion -fif-conversion2
# -findirect-inlining -finline -finline-atomics -finline-functions
# -finline-functions-called-once -finline-small-functions -fipa-bit-cp
# -fipa-cp -fipa-cp-clone -fipa-icf -fipa-icf-functions -fipa-icf-variables
# -fipa-profile -fipa-pure-const -fipa-ra -fipa-reference
# -fipa-reference-addressable -fipa-sra -fipa-stack-alignment -fipa-vrp
# -fira-hoist-pressure -fira-share-save-slots -fira-share-spill-slots
# -fisolate-erroneous-paths-dereference -fivopts -fkeep-static-consts
# -fleading-underscore -flifetime-dse -floop-interchange
# -floop-unroll-and-jam -flra-remat -flto-odr-type-merging -fmath-errno
# -fmerge-constants -fmerge-debug-strings -fmove-loop-invariants
# -fomit-frame-pointer -foptimize-sibling-calls -foptimize-strlen
# -fpartial-inlining -fpeel-loops -fpeephole -fpeephole2 -fplt
# -fpredictive-commoning -fprefetch-loop-arrays -free -freg-struct-return
# -freorder-blocks -freorder-blocks-and-partition -freorder-functions
# -frerun-cse-after-loop -fsched-critical-path-heuristic
# -fsched-dep-count-heuristic -fsched-group-heuristic -fsched-interblock
# -fsched-last-insn-heuristic -fsched-rank-heuristic -fsched-spec
# -fsched-spec-insn-heuristic -fsched-stalled-insns-dep -fschedule-fusion
# -fschedule-insns2 -fsemantic-interposition -fshow-column -fshrink-wrap
# -fshrink-wrap-separate -fsigned-zeros -fsplit-ivs-in-unroller
# -fsplit-loops -fsplit-paths -fsplit-wide-types -fssa-backprop
# -fssa-phiopt -fstack-clash-protection -fstack-protector-strong
# -fstdarg-opt -fstore-merging -fstrict-aliasing
# -fstrict-volatile-bitfields -fsync-libcalls -fthread-jumps
# -ftoplevel-reorder -ftrapping-math -ftree-bit-ccp -ftree-builtin-call-dce
# -ftree-ccp -ftree-ch -ftree-coalesce-vars -ftree-copy-prop -ftree-cselim
# -ftree-dce -ftree-dominator-opts -ftree-dse -ftree-forwprop -ftree-fre
# -ftree-loop-distribute-patterns -ftree-loop-distribution
# -ftree-loop-if-convert -ftree-loop-im -ftree-loop-ivcanon
# -ftree-loop-optimize -ftree-loop-vectorize -ftree-parallelize-loops=
# -ftree-partial-pre -ftree-phiprop -ftree-pre -ftree-pta -ftree-reassoc
# -ftree-scev-cprop -ftree-sink -ftree-slp-vectorize -ftree-slsr -ftree-sra
# -ftree-switch-conversion -ftree-tail-merge -ftree-ter -ftree-vrp
# -funit-at-a-time -funswitch-loops -funwind-tables -fvar-tracking
# -fvar-tracking-assignments -fverbose-asm -fversion-loops-for-strides
# -fzero-initialized-in-bss -m128bit-long-double -m64 -m80387
# -malign-stringops -mavx -mavx2 -mavx256-split-unaligned-load
# -mavx256-split-unaligned-store -mfancy-math-387 -mfma -mfp-ret-in-387
# -mfxsr -mglibc -mieee-fp -mlong-double-80 -mmmx -mpopcnt -mpush-args
# -mred-zone -msse -msse2 -msse3 -msse4 -msse4.1 -msse4.2 -mssse3 -mstv
# -mtls-direct-seg-refs -mvzeroupper -mxsave

	.text
.Ltext0:
	.section	.rodata.str1.1,"aMS",@progbits,1
.LC0:
	.string	"int main(int, char**)"
.LC1:
	.string	"main.cpp"
.LC2:
	.string	"argc == 1 + 2 + in_size"
	.section	.text.startup,"ax",@progbits
	.p2align 4
	.globl	main
	.type	main, @function
main:
.LVL0:
.LFB35:
	.file 1 "main.cpp"
	.loc 1 108 34 view -0
	.cfi_startproc
	.loc 1 108 34 is_stmt 0 view .LVU1
	endbr64	
	pushq	%r15	#
	.cfi_def_cfa_offset 16
	.cfi_offset 15, -16
	pushq	%r14	#
	.cfi_def_cfa_offset 24
	.cfi_offset 14, -24
	pushq	%r13	#
	.cfi_def_cfa_offset 32
	.cfi_offset 13, -32
	pushq	%r12	#
	.cfi_def_cfa_offset 40
	.cfi_offset 12, -40
	pushq	%rbp	#
	.cfi_def_cfa_offset 48
	.cfi_offset 6, -48
	pushq	%rbx	#
	.cfi_def_cfa_offset 56
	.cfi_offset 3, -56
	subq	$4096, %rsp	#,
	.cfi_def_cfa_offset 4152
	orq	$0, (%rsp)	#,
	subq	$4096, %rsp	#,
	.cfi_def_cfa_offset 8248
	orq	$0, (%rsp)	#,
	subq	$3416, %rsp	#,
	.cfi_def_cfa_offset 11664
# main.cpp:108: int main(int argc, char ** argv) {
	.loc 1 108 34 view .LVU2
	movq	%fs:40, %rax	# MEM[(<address-space-1> long unsigned int *)40B], tmp192
	movq	%rax, 11592(%rsp)	# tmp192, D.4479
	xorl	%eax, %eax	# tmp192
	.loc 1 110 5 is_stmt 1 view .LVU3
.LVL1:
	.loc 1 111 5 view .LVU4
	.loc 1 112 5 view .LVU5
	.loc 1 114 5 view .LVU6
	cmpl	$323, %edi	#, tmp186
	jne	.L2	#,
	vxorps	%xmm2, %xmm2, %xmm2	# tmp189
	movq	%rsi, %rbp	# tmp187, argv
.LVL2:
.LBB110:
	.loc 1 117 20 view .LVU7
	.loc 1 118 9 view .LVU8
	.loc 1 117 5 view .LVU9
	.loc 1 117 20 view .LVU10
	.loc 1 118 9 view .LVU11
	.loc 1 117 5 view .LVU12
	.loc 1 117 20 view .LVU13
	.loc 1 118 9 view .LVU14
	.loc 1 117 5 view .LVU15
	.loc 1 117 20 view .LVU16
	.loc 1 118 9 view .LVU17
	leaq	64(%rsp), %rbx	#, tmp181
# main.cpp:118:         output[i] = 0.0;
	.loc 1 118 19 is_stmt 0 view .LVU18
	xorl	%r15d, %r15d	# ivtmp.41
	leaq	1344(%rsp), %rax	#, tmp174
	vmovaps	%xmm2, 48(%rsp)	# tmp133, MEM[(float *)&output]
	.loc 1 117 5 is_stmt 1 view .LVU19
.LVL3:
	.loc 1 117 20 view .LVU20
	.loc 1 117 20 is_stmt 0 view .LVU21
.LBE110:
.LBB111:
	.loc 1 125 20 is_stmt 1 view .LVU22
	leaq	2624(%rsp), %r13	#, tmp176
	movq	%rax, 8(%rsp)	# tmp174, %sfp
	leaq	3904(%rsp), %rax	#, tmp179
	leaq	6464(%rsp), %r12	#, tmp175
	movq	%rax, 24(%rsp)	# tmp179, %sfp
	leaq	5184(%rsp), %rax	#, tmp184
	leaq	7744(%rsp), %r14	#, tmp178
	movq	%rax, 40(%rsp)	# tmp184, %sfp
	leaq	9024(%rsp), %rax	#, tmp180
	movq	%rax, 32(%rsp)	# tmp180, %sfp
	leaq	10304(%rsp), %rax	#, tmp173
	movq	%rax, 16(%rsp)	# tmp173, %sfp
.LVL4:
	.p2align 4,,10
	.p2align 3
.L3:
	.loc 1 126 9 discriminator 2 view .LVU23
.LBB112:
.LBI112:
	.file 2 "/usr/include/x86_64-linux-gnu/bits/stdlib-float.h"
	.loc 2 25 1 discriminator 2 view .LVU24
.LBB113:
	.loc 2 27 3 discriminator 2 view .LVU25
# /usr/include/x86_64-linux-gnu/bits/stdlib-float.h:27:   return strtod (__nptr, (char **) NULL);
	.loc 2 27 17 is_stmt 0 discriminator 2 view .LVU26
	movq	8(%rbp,%r15,8), %rdi	# MEM[base: argv_29(D), index: ivtmp.41_447, step: 8, offset: 8B], MEM[base: argv_29(D), index: ivtmp.41_447, step: 8, offset: 8B]
	xorl	%esi, %esi	#
	call	strtod@PLT	#
.LVL5:
	.loc 2 27 17 discriminator 2 view .LVU27
.LBE113:
.LBE112:
# main.cpp:127:         ix0[i] = int32_t(i * scale);
	.loc 1 127 28 discriminator 2 view .LVU28
	vxorps	%xmm2, %xmm2, %xmm2	# tmp189
	vxorps	%xmm5, %xmm5, %xmm5	# tmp199
# main.cpp:126:         input[i] = atof(argv[1 + i]) * 1.0 / in_size;
	.loc 1 126 44 discriminator 2 view .LVU29
	vdivsd	.LC3(%rip), %xmm0, %xmm0	#, tmp188, tmp136
	vcvtsd2ss	%xmm0, %xmm0, %xmm0	# tmp136, tmp140
	vmovss	%xmm0, (%rbx,%r15,4)	# tmp140, MEM[symbol: input, index: ivtmp.41_447, step: 4, offset: 0B]
	.loc 1 127 9 is_stmt 1 discriminator 2 view .LVU30
# main.cpp:127:         ix0[i] = int32_t(i * scale);
	.loc 1 127 28 is_stmt 0 discriminator 2 view .LVU31
	vcvtsi2ssl	%r15d, %xmm2, %xmm0	# ivtmp.41, tmp189, tmp190
# main.cpp:127:         ix0[i] = int32_t(i * scale);
	.loc 1 127 16 discriminator 2 view .LVU32
	movq	8(%rsp), %rax	# %sfp, tmp174
# main.cpp:130:         wx1[i] = 1.0 - wx0[i];
	.loc 1 130 16 discriminator 2 view .LVU33
	vmovss	.LC5(%rip), %xmm6	#, tmp201
# main.cpp:127:         ix0[i] = int32_t(i * scale);
	.loc 1 127 28 discriminator 2 view .LVU34
	vmulss	%xmm5, %xmm0, %xmm1	# tmp199, tmp141, _9
# main.cpp:127:         ix0[i] = int32_t(i * scale);
	.loc 1 127 18 discriminator 2 view .LVU35
	vcvttss2sil	%xmm1, %edx	# _9, _10
# main.cpp:129:         wx0[i] = i * scale - ix0[i];
	.loc 1 129 28 discriminator 2 view .LVU36
	vcvtsi2ssl	%edx, %xmm2, %xmm0	# _10, tmp189, tmp191
# main.cpp:127:         ix0[i] = int32_t(i * scale);
	.loc 1 127 16 discriminator 2 view .LVU37
	movl	%edx, (%rax,%r15,4)	# _10, MEM[symbol: ix0, index: ivtmp.41_447, step: 4, offset: 0B]
	.loc 1 128 9 is_stmt 1 discriminator 2 view .LVU38
# main.cpp:132:         iy0[i] = int32_t(i * scale);
	.loc 1 132 16 is_stmt 0 discriminator 2 view .LVU39
	movq	24(%rsp), %rax	# %sfp, tmp179
# main.cpp:128:         ix1[i] = ix0[i] + 1;
	.loc 1 128 25 discriminator 2 view .LVU40
	leal	1(%rdx), %ecx	#, _11
# main.cpp:128:         ix1[i] = ix0[i] + 1;
	.loc 1 128 16 discriminator 2 view .LVU41
	movl	%ecx, 0(%r13,%r15,4)	# _11, MEM[symbol: ix1, index: ivtmp.41_447, step: 4, offset: 0B]
	.loc 1 129 9 is_stmt 1 discriminator 2 view .LVU42
# main.cpp:132:         iy0[i] = int32_t(i * scale);
	.loc 1 132 16 is_stmt 0 discriminator 2 view .LVU43
	movl	%edx, (%rax,%r15,4)	# _10, MEM[symbol: iy0, index: ivtmp.41_447, step: 4, offset: 0B]
# main.cpp:133:         iy1[i] = iy0[i] + 1;
	.loc 1 133 16 discriminator 2 view .LVU44
	movq	40(%rsp), %rax	# %sfp, tmp184
# main.cpp:129:         wx0[i] = i * scale - ix0[i];
	.loc 1 129 28 discriminator 2 view .LVU45
	vsubss	%xmm0, %xmm1, %xmm0	# tmp145, _9, _13
# main.cpp:133:         iy1[i] = iy0[i] + 1;
	.loc 1 133 16 discriminator 2 view .LVU46
	movl	%ecx, (%rax,%r15,4)	# _11, MEM[symbol: iy1, index: ivtmp.41_447, step: 4, offset: 0B]
# main.cpp:134:         wy0[i] = i * scale - iy0[i];
	.loc 1 134 16 discriminator 2 view .LVU47
	movq	32(%rsp), %rax	# %sfp, tmp180
# main.cpp:130:         wx1[i] = 1.0 - wx0[i];
	.loc 1 130 16 discriminator 2 view .LVU48
	vsubss	%xmm0, %xmm6, %xmm1	# _13, tmp201, _14
# main.cpp:134:         wy0[i] = i * scale - iy0[i];
	.loc 1 134 16 discriminator 2 view .LVU49
	vmovss	%xmm0, (%rax,%r15,4)	# _13, MEM[symbol: wy0, index: ivtmp.41_447, step: 4, offset: 0B]
# main.cpp:135:         wy1[i] = 1.0 - wy0[i];
	.loc 1 135 16 discriminator 2 view .LVU50
	movq	16(%rsp), %rax	# %sfp, tmp173
# main.cpp:129:         wx0[i] = i * scale - ix0[i];
	.loc 1 129 16 discriminator 2 view .LVU51
	vmovss	%xmm0, (%r12,%r15,4)	# _13, MEM[symbol: wx0, index: ivtmp.41_447, step: 4, offset: 0B]
	.loc 1 130 9 is_stmt 1 discriminator 2 view .LVU52
# main.cpp:130:         wx1[i] = 1.0 - wx0[i];
	.loc 1 130 16 is_stmt 0 discriminator 2 view .LVU53
	vmovss	%xmm1, (%r14,%r15,4)	# _14, MEM[symbol: wx1, index: ivtmp.41_447, step: 4, offset: 0B]
	.loc 1 132 9 is_stmt 1 discriminator 2 view .LVU54
	.loc 1 133 9 discriminator 2 view .LVU55
	.loc 1 134 9 discriminator 2 view .LVU56
	.loc 1 135 9 discriminator 2 view .LVU57
# main.cpp:135:         wy1[i] = 1.0 - wy0[i];
	.loc 1 135 16 is_stmt 0 discriminator 2 view .LVU58
	vmovss	%xmm1, (%rax,%r15,4)	# _14, MEM[symbol: wy1, index: ivtmp.41_447, step: 4, offset: 0B]
	.loc 1 125 5 is_stmt 1 discriminator 2 view .LVU59
.LVL6:
	.loc 1 125 20 discriminator 2 view .LVU60
	addq	$1, %r15	#, ivtmp.41
.LVL7:
	.loc 1 125 20 is_stmt 0 discriminator 2 view .LVU61
	cmpq	$320, %r15	#, ivtmp.41
	jne	.L3	#,
.LBE111:
.LBB114:
.LBB115:
.LBB116:
.LBB117:
.LBB118:
.LBB119:
.LBB120:
# main.cpp:16:         scalar_t t0 = InterpLinear<n - 1, scalar_t, index_t>::eval(src + i0, &data[4], &strides[4], i);
	.loc 1 16 74 view .LVU62
	movslq	3904(%rsp), %rax	# MEM[(int *)&iy0], MEM[(int *)&iy0]
	leaq	48(%rsp), %rcx	#, tmp177
# main.cpp:13:         scalar_t w0 = *(scalar_t *)&data[1][i * strides[1]];
	.loc 1 13 18 view .LVU63
	vmovss	9024(%rsp), %xmm4	# MEM[(float *)&wy0], w0
# main.cpp:14:         scalar_t w1 = *(scalar_t *)&data[3][i * strides[3]];
	.loc 1 14 18 view .LVU64
	vmovss	10304(%rsp), %xmm3	# MEM[(float *)&wy1], w1
# main.cpp:16:         scalar_t t0 = InterpLinear<n - 1, scalar_t, index_t>::eval(src + i0, &data[4], &strides[4], i);
	.loc 1 16 67 view .LVU65
	leaq	(%rbx,%rax), %rdx	#, _135
# main.cpp:17:         scalar_t t1 = InterpLinear<n - 1, scalar_t, index_t>::eval(src + i1, &data[4], &strides[4], i);
	.loc 1 17 74 view .LVU66
	movslq	5184(%rsp), %rax	# MEM[(int *)&iy1], MEM[(int *)&iy1]
# main.cpp:17:         scalar_t t1 = InterpLinear<n - 1, scalar_t, index_t>::eval(src + i1, &data[4], &strides[4], i);
	.loc 1 17 67 view .LVU67
	addq	%rax, %rbx	# MEM[(int *)&iy1], _138
.LBE120:
.LBE119:
.LBE118:
# main.cpp:77:   for (int64_t i = 0; i < n; i++) {
	.loc 1 77 16 view .LVU68
	xorl	%eax, %eax	# i
.L4:
.LVL8:
.LBB131:
.LBI118:
	.loc 1 37 24 is_stmt 1 view .LVU69
.LBB130:
.LBI119:
	.loc 1 10 28 view .LVU70
.LBB129:
.LBB121:
.LBI121:
	.loc 1 25 28 view .LVU71
.LBB122:
# main.cpp:30:         scalar_t t0 = *(scalar_t *)&src[i0];
	.loc 1 30 41 is_stmt 0 view .LVU72
	movq	8(%rsp), %rsi	# %sfp, tmp174
# main.cpp:31:         scalar_t t1 = *(scalar_t *)&src[i1];
	.loc 1 31 41 view .LVU73
	movslq	0(%r13,%rax,4), %rdi	# MEM[symbol: ix1, index: _106, step: 4, offset: 0B], _203
# main.cpp:29:         scalar_t w1 = *(scalar_t *)&data[3][i * strides[3]];
	.loc 1 29 18 view .LVU74
	vmovss	(%r14,%rax,4), %xmm2	# MEM[symbol: wx1, index: _106, step: 4, offset: 0B], w1
# main.cpp:28:         scalar_t w0 = *(scalar_t *)&data[1][i * strides[1]];
	.loc 1 28 18 view .LVU75
	vmovss	(%r12,%rax,4), %xmm0	# MEM[symbol: wx0, index: _106, step: 4, offset: 0B], w0
.LVL9:
# main.cpp:30:         scalar_t t0 = *(scalar_t *)&src[i0];
	.loc 1 30 41 view .LVU76
	movslq	(%rsi,%rax,4), %rsi	# MEM[symbol: ix0, index: _106, step: 4, offset: 0B], _200
.LVL10:
# main.cpp:32:         return t0 * w0 + t1 * w1;
	.loc 1 32 29 view .LVU77
	vmulss	(%rdx,%rdi), %xmm2, %xmm1	# MEM[(float *)_204], w1, tmp165
.LBE122:
.LBE121:
.LBB124:
.LBB125:
	vmulss	(%rbx,%rdi), %xmm2, %xmm2	# MEM[(float *)_171], w1, tmp166
.LVL11:
	.loc 1 32 29 view .LVU78
.LBE125:
.LBE124:
.LBB127:
.LBB123:
# main.cpp:32:         return t0 * w0 + t1 * w1;
	.loc 1 32 31 view .LVU79
	vfmadd231ss	(%rdx,%rsi), %xmm0, %xmm1	# MEM[(float *)_201], w0, _208
.LVL12:
	.loc 1 32 31 view .LVU80
.LBE123:
.LBE127:
.LBB128:
.LBI124:
	.loc 1 25 28 is_stmt 1 view .LVU81
.LBB126:
# main.cpp:32:         return t0 * w0 + t1 * w1;
	.loc 1 32 31 is_stmt 0 view .LVU82
	vfmadd132ss	(%rbx,%rsi), %xmm2, %xmm0	# MEM[(float *)_168], tmp166, _175
.LVL13:
	.loc 1 32 31 view .LVU83
.LBE126:
.LBE128:
# main.cpp:19:         return t0 * w0 + t1 * w1;
	.loc 1 19 29 view .LVU84
	vmulss	%xmm0, %xmm3, %xmm0	# _175, w1, tmp167
.LVL14:
# main.cpp:19:         return t0 * w0 + t1 * w1;
	.loc 1 19 31 view .LVU85
	vfmadd231ss	%xmm1, %xmm4, %xmm0	# _208, w0, _142
.LVL15:
	.loc 1 19 31 view .LVU86
.LBE129:
.LBE130:
.LBE131:
# main.cpp:78:     *(scalar_t*)&dst[i * strides[0]] = interp_linear<out_ndims, scalar_t, index_t>(
	.loc 1 78 5 view .LVU87
	vmovss	%xmm0, (%rcx,%rax,4)	# _142, MEM[symbol: output, index: _106, step: 4, offset: 0B]
	.loc 1 77 3 is_stmt 1 view .LVU88
	addq	$1, %rax	#, i
.LVL16:
	.loc 1 77 25 view .LVU89
	cmpq	$4, %rax	#, i
	jne	.L4	#,
.LVL17:
	.loc 1 77 25 is_stmt 0 view .LVU90
.LBE117:
.LBE116:
.LBE115:
.LBE114:
	.loc 1 177 5 is_stmt 1 view .LVU91
# main.cpp:177:     return int(data[0][0] + data[0][1]);
	.loc 1 177 25 is_stmt 0 view .LVU92
	movsbl	48(%rsp), %eax	# MEM[(char *)&output], MEM[(char *)&output]
# main.cpp:177:     return int(data[0][0] + data[0][1]);
	.loc 1 177 38 view .LVU93
	movsbl	49(%rsp), %edx	# MEM[(char *)&output + 1B], MEM[(char *)&output + 1B]
# main.cpp:177:     return int(data[0][0] + data[0][1]);
	.loc 1 177 39 view .LVU94
	addl	%edx, %eax	# MEM[(char *)&output + 1B], <retval>
# main.cpp:178: }
	.loc 1 178 1 view .LVU95
	movq	11592(%rsp), %rsi	# D.4479, tmp193
	xorq	%fs:40, %rsi	# MEM[(<address-space-1> long unsigned int *)40B], tmp193
	jne	.L11	#,
	addq	$11608, %rsp	#,
	.cfi_remember_state
	.cfi_def_cfa_offset 56
	popq	%rbx	#
	.cfi_def_cfa_offset 48
	popq	%rbp	#
	.cfi_def_cfa_offset 40
.LVL18:
	.loc 1 178 1 view .LVU96
	popq	%r12	#
	.cfi_def_cfa_offset 32
	popq	%r13	#
	.cfi_def_cfa_offset 24
	popq	%r14	#
	.cfi_def_cfa_offset 16
	popq	%r15	#
	.cfi_def_cfa_offset 8
	ret	
.LVL19:
.L2:
	.cfi_restore_state
# main.cpp:114:     assert (argc == 1 + 2 + in_size);
	.loc 1 114 5 discriminator 1 view .LVU97
	leaq	.LC0(%rip), %rcx	#,
	movl	$114, %edx	#,
	leaq	.LC1(%rip), %rsi	#,
.LVL20:
	.loc 1 114 5 discriminator 1 view .LVU98
	leaq	.LC2(%rip), %rdi	#,
.LVL21:
	.loc 1 114 5 discriminator 1 view .LVU99
	call	__assert_fail@PLT	#
.LVL22:
.L11:
# main.cpp:178: }
	.loc 1 178 1 view .LVU100
	call	__stack_chk_fail@PLT	#
.LVL23:
	.cfi_endproc
.LFE35:
	.size	main, .-main
	.section	.rodata.cst8,"aM",@progbits,8
	.align 8
.LC3:
	.long	0
	.long	1081344000
	.section	.rodata.cst4,"aM",@progbits,4
	.align 4
.LC5:
	.long	1065353216
	.text
.Letext0:
	.file 3 "/usr/include/c++/9/cstdlib"
	.file 4 "/usr/include/c++/9/bits/std_abs.h"
	.file 5 "/usr/include/x86_64-linux-gnu/c++/9/bits/c++config.h"
	.file 6 "/usr/lib/gcc/x86_64-linux-gnu/9/include/stddef.h"
	.file 7 "/usr/include/stdlib.h"
	.file 8 "/usr/include/x86_64-linux-gnu/bits/types.h"
	.file 9 "/usr/include/x86_64-linux-gnu/bits/stdint-intn.h"
	.file 10 "/usr/include/x86_64-linux-gnu/bits/stdlib-bsearch.h"
	.file 11 "/usr/include/x86_64-linux-gnu/bits/stdlib.h"
	.file 12 "/usr/include/c++/9/stdlib.h"
	.file 13 "<built-in>"
	.file 14 "/usr/include/assert.h"
	.section	.debug_info,"",@progbits
.Ldebug_info0:
	.long	0x12ba
	.value	0x4
	.long	.Ldebug_abbrev0
	.byte	0x8
	.uleb128 0x1
	.long	.LASF100
	.byte	0x4
	.long	.LASF101
	.long	.LASF102
	.long	.Ldebug_ranges0+0x90
	.quad	0
	.long	.Ldebug_line0
	.uleb128 0x2
	.string	"std"
	.byte	0xd
	.byte	0
	.long	0x218
	.uleb128 0x3
	.long	.LASF7
	.byte	0x5
	.value	0x114
	.byte	0x41
	.uleb128 0x4
	.byte	0x5
	.value	0x114
	.byte	0x41
	.long	0x34
	.uleb128 0x5
	.byte	0x3
	.byte	0x7f
	.byte	0xb
	.long	0x2f7
	.uleb128 0x5
	.byte	0x3
	.byte	0x80
	.byte	0xb
	.long	0x332
	.uleb128 0x5
	.byte	0x3
	.byte	0x86
	.byte	0xb
	.long	0x419
	.uleb128 0x5
	.byte	0x3
	.byte	0x89
	.byte	0xb
	.long	0x437
	.uleb128 0x5
	.byte	0x3
	.byte	0x8c
	.byte	0xb
	.long	0x452
	.uleb128 0x5
	.byte	0x3
	.byte	0x8d
	.byte	0xb
	.long	0x470
	.uleb128 0x5
	.byte	0x3
	.byte	0x8e
	.byte	0xb
	.long	0x487
	.uleb128 0x5
	.byte	0x3
	.byte	0x8f
	.byte	0xb
	.long	0x49e
	.uleb128 0x5
	.byte	0x3
	.byte	0x91
	.byte	0xb
	.long	0x4c8
	.uleb128 0x5
	.byte	0x3
	.byte	0x94
	.byte	0xb
	.long	0x4e4
	.uleb128 0x5
	.byte	0x3
	.byte	0x96
	.byte	0xb
	.long	0x4fb
	.uleb128 0x5
	.byte	0x3
	.byte	0x99
	.byte	0xb
	.long	0x517
	.uleb128 0x5
	.byte	0x3
	.byte	0x9a
	.byte	0xb
	.long	0x533
	.uleb128 0x5
	.byte	0x3
	.byte	0x9b
	.byte	0xb
	.long	0x565
	.uleb128 0x5
	.byte	0x3
	.byte	0x9d
	.byte	0xb
	.long	0x586
	.uleb128 0x5
	.byte	0x3
	.byte	0xa0
	.byte	0xb
	.long	0x5a8
	.uleb128 0x5
	.byte	0x3
	.byte	0xa3
	.byte	0xb
	.long	0x5bb
	.uleb128 0x5
	.byte	0x3
	.byte	0xa5
	.byte	0xb
	.long	0x5c8
	.uleb128 0x5
	.byte	0x3
	.byte	0xa6
	.byte	0xb
	.long	0x5db
	.uleb128 0x5
	.byte	0x3
	.byte	0xa7
	.byte	0xb
	.long	0x5fc
	.uleb128 0x5
	.byte	0x3
	.byte	0xa8
	.byte	0xb
	.long	0x61c
	.uleb128 0x5
	.byte	0x3
	.byte	0xa9
	.byte	0xb
	.long	0x63c
	.uleb128 0x5
	.byte	0x3
	.byte	0xab
	.byte	0xb
	.long	0x653
	.uleb128 0x5
	.byte	0x3
	.byte	0xac
	.byte	0xb
	.long	0x679
	.uleb128 0x5
	.byte	0x3
	.byte	0xf0
	.byte	0x16
	.long	0x36d
	.uleb128 0x5
	.byte	0x3
	.byte	0xf5
	.byte	0x16
	.long	0x26f
	.uleb128 0x5
	.byte	0x3
	.byte	0xf6
	.byte	0x16
	.long	0x694
	.uleb128 0x5
	.byte	0x3
	.byte	0xf8
	.byte	0x16
	.long	0x6b0
	.uleb128 0x5
	.byte	0x3
	.byte	0xf9
	.byte	0x16
	.long	0x707
	.uleb128 0x5
	.byte	0x3
	.byte	0xfa
	.byte	0x16
	.long	0x6c7
	.uleb128 0x5
	.byte	0x3
	.byte	0xfb
	.byte	0x16
	.long	0x6e7
	.uleb128 0x5
	.byte	0x3
	.byte	0xfc
	.byte	0x16
	.long	0x722
	.uleb128 0x6
	.string	"abs"
	.byte	0x4
	.byte	0x67
	.byte	0x3
	.long	.LASF0
	.long	0x2ac
	.long	0x160
	.uleb128 0x7
	.long	0x2ac
	.byte	0
	.uleb128 0x6
	.string	"abs"
	.byte	0x4
	.byte	0x55
	.byte	0x3
	.long	.LASF1
	.long	0x76d
	.long	0x17a
	.uleb128 0x7
	.long	0x76d
	.byte	0
	.uleb128 0x6
	.string	"abs"
	.byte	0x4
	.byte	0x4f
	.byte	0x3
	.long	.LASF2
	.long	0x2c1
	.long	0x194
	.uleb128 0x7
	.long	0x2c1
	.byte	0
	.uleb128 0x6
	.string	"abs"
	.byte	0x4
	.byte	0x4b
	.byte	0x3
	.long	.LASF3
	.long	0x2b3
	.long	0x1ae
	.uleb128 0x7
	.long	0x2b3
	.byte	0
	.uleb128 0x6
	.string	"abs"
	.byte	0x4
	.byte	0x47
	.byte	0x3
	.long	.LASF4
	.long	0x2ba
	.long	0x1c8
	.uleb128 0x7
	.long	0x2ba
	.byte	0
	.uleb128 0x6
	.string	"abs"
	.byte	0x4
	.byte	0x3d
	.byte	0x3
	.long	.LASF5
	.long	0x366
	.long	0x1e2
	.uleb128 0x7
	.long	0x366
	.byte	0
	.uleb128 0x6
	.string	"abs"
	.byte	0x4
	.byte	0x38
	.byte	0x3
	.long	.LASF6
	.long	0x32b
	.long	0x1fc
	.uleb128 0x7
	.long	0x32b
	.byte	0
	.uleb128 0x8
	.string	"div"
	.byte	0x3
	.byte	0xb1
	.byte	0x3
	.long	.LASF8
	.long	0x332
	.uleb128 0x7
	.long	0x32b
	.uleb128 0x7
	.long	0x32b
	.byte	0
	.byte	0
	.uleb128 0x9
	.long	.LASF103
	.byte	0x5
	.value	0x116
	.byte	0xb
	.long	0x28b
	.uleb128 0x3
	.long	.LASF7
	.byte	0x5
	.value	0x118
	.byte	0x41
	.uleb128 0x4
	.byte	0x5
	.value	0x118
	.byte	0x41
	.long	0x225
	.uleb128 0x5
	.byte	0x3
	.byte	0xc8
	.byte	0xb
	.long	0x36d
	.uleb128 0x5
	.byte	0x3
	.byte	0xd8
	.byte	0xb
	.long	0x694
	.uleb128 0x5
	.byte	0x3
	.byte	0xe3
	.byte	0xb
	.long	0x6b0
	.uleb128 0x5
	.byte	0x3
	.byte	0xe4
	.byte	0xb
	.long	0x6c7
	.uleb128 0x5
	.byte	0x3
	.byte	0xe5
	.byte	0xb
	.long	0x6e7
	.uleb128 0x5
	.byte	0x3
	.byte	0xe7
	.byte	0xb
	.long	0x707
	.uleb128 0x5
	.byte	0x3
	.byte	0xe8
	.byte	0xb
	.long	0x722
	.uleb128 0x8
	.string	"div"
	.byte	0x3
	.byte	0xd5
	.byte	0x3
	.long	.LASF9
	.long	0x36d
	.uleb128 0x7
	.long	0x366
	.uleb128 0x7
	.long	0x366
	.byte	0
	.byte	0
	.uleb128 0xa
	.long	.LASF18
	.byte	0x6
	.byte	0xd1
	.byte	0x17
	.long	0x297
	.uleb128 0xb
	.byte	0x8
	.byte	0x7
	.long	.LASF10
	.uleb128 0xb
	.byte	0x4
	.byte	0x7
	.long	.LASF11
	.uleb128 0xb
	.byte	0x20
	.byte	0x3
	.long	.LASF12
	.uleb128 0xb
	.byte	0x10
	.byte	0x4
	.long	.LASF13
	.uleb128 0xb
	.byte	0x4
	.byte	0x4
	.long	.LASF14
	.uleb128 0xb
	.byte	0x8
	.byte	0x4
	.long	.LASF15
	.uleb128 0xb
	.byte	0x10
	.byte	0x4
	.long	.LASF16
	.uleb128 0xc
	.byte	0x8
	.byte	0x7
	.byte	0x3b
	.byte	0x3
	.long	.LASF20
	.long	0x2f0
	.uleb128 0xd
	.long	.LASF17
	.byte	0x7
	.byte	0x3c
	.byte	0x9
	.long	0x2f0
	.byte	0
	.uleb128 0xe
	.string	"rem"
	.byte	0x7
	.byte	0x3d
	.byte	0x9
	.long	0x2f0
	.byte	0x4
	.byte	0
	.uleb128 0xf
	.byte	0x4
	.byte	0x5
	.string	"int"
	.uleb128 0xa
	.long	.LASF19
	.byte	0x7
	.byte	0x3e
	.byte	0x5
	.long	0x2c8
	.uleb128 0xc
	.byte	0x10
	.byte	0x7
	.byte	0x43
	.byte	0x3
	.long	.LASF21
	.long	0x32b
	.uleb128 0xd
	.long	.LASF17
	.byte	0x7
	.byte	0x44
	.byte	0xe
	.long	0x32b
	.byte	0
	.uleb128 0xe
	.string	"rem"
	.byte	0x7
	.byte	0x45
	.byte	0xe
	.long	0x32b
	.byte	0x8
	.byte	0
	.uleb128 0xb
	.byte	0x8
	.byte	0x5
	.long	.LASF22
	.uleb128 0xa
	.long	.LASF23
	.byte	0x7
	.byte	0x46
	.byte	0x5
	.long	0x303
	.uleb128 0xc
	.byte	0x10
	.byte	0x7
	.byte	0x4d
	.byte	0x3
	.long	.LASF24
	.long	0x366
	.uleb128 0xd
	.long	.LASF17
	.byte	0x7
	.byte	0x4e
	.byte	0x13
	.long	0x366
	.byte	0
	.uleb128 0xe
	.string	"rem"
	.byte	0x7
	.byte	0x4f
	.byte	0x13
	.long	0x366
	.byte	0x8
	.byte	0
	.uleb128 0xb
	.byte	0x8
	.byte	0x5
	.long	.LASF25
	.uleb128 0xa
	.long	.LASF26
	.byte	0x7
	.byte	0x50
	.byte	0x5
	.long	0x33e
	.uleb128 0xb
	.byte	0x2
	.byte	0x7
	.long	.LASF27
	.uleb128 0x10
	.byte	0x8
	.long	0x38d
	.uleb128 0xb
	.byte	0x1
	.byte	0x6
	.long	.LASF28
	.uleb128 0x11
	.long	0x386
	.uleb128 0xb
	.byte	0x1
	.byte	0x8
	.long	.LASF29
	.uleb128 0xb
	.byte	0x1
	.byte	0x6
	.long	.LASF30
	.uleb128 0xb
	.byte	0x2
	.byte	0x5
	.long	.LASF31
	.uleb128 0xa
	.long	.LASF32
	.byte	0x8
	.byte	0x29
	.byte	0x14
	.long	0x2f0
	.uleb128 0xa
	.long	.LASF33
	.byte	0x8
	.byte	0x2c
	.byte	0x19
	.long	0x32b
	.uleb128 0x12
	.byte	0x8
	.uleb128 0x10
	.byte	0x8
	.long	0x386
	.uleb128 0xa
	.long	.LASF34
	.byte	0x9
	.byte	0x1a
	.byte	0x13
	.long	0x3a7
	.uleb128 0xa
	.long	.LASF35
	.byte	0x9
	.byte	0x1b
	.byte	0x13
	.long	0x3b3
	.uleb128 0x11
	.long	0x3d3
	.uleb128 0xb
	.byte	0x8
	.byte	0x7
	.long	.LASF36
	.uleb128 0x13
	.long	.LASF37
	.byte	0x7
	.value	0x328
	.byte	0xf
	.long	0x3f8
	.uleb128 0x10
	.byte	0x8
	.long	0x3fe
	.uleb128 0x14
	.long	0x2f0
	.long	0x412
	.uleb128 0x7
	.long	0x412
	.uleb128 0x7
	.long	0x412
	.byte	0
	.uleb128 0x10
	.byte	0x8
	.long	0x418
	.uleb128 0x15
	.uleb128 0x16
	.long	.LASF38
	.byte	0x7
	.value	0x253
	.byte	0xc
	.long	0x2f0
	.long	0x430
	.uleb128 0x7
	.long	0x430
	.byte	0
	.uleb128 0x10
	.byte	0x8
	.long	0x436
	.uleb128 0x17
	.uleb128 0x18
	.long	.LASF39
	.byte	0x7
	.value	0x258
	.byte	0x12
	.long	.LASF39
	.long	0x2f0
	.long	0x452
	.uleb128 0x7
	.long	0x430
	.byte	0
	.uleb128 0x19
	.long	.LASF40
	.byte	0x2
	.byte	0x19
	.byte	0x1
	.long	0x2ba
	.byte	0x3
	.long	0x470
	.uleb128 0x1a
	.long	.LASF82
	.byte	0x2
	.byte	0x19
	.byte	0x1
	.long	0x380
	.byte	0
	.uleb128 0x16
	.long	.LASF41
	.byte	0x7
	.value	0x169
	.byte	0x1
	.long	0x2f0
	.long	0x487
	.uleb128 0x7
	.long	0x380
	.byte	0
	.uleb128 0x16
	.long	.LASF42
	.byte	0x7
	.value	0x16e
	.byte	0x1
	.long	0x32b
	.long	0x49e
	.uleb128 0x7
	.long	0x380
	.byte	0
	.uleb128 0x1b
	.long	.LASF43
	.byte	0xa
	.byte	0x14
	.byte	0x1
	.long	0x3bf
	.long	0x4c8
	.uleb128 0x7
	.long	0x412
	.uleb128 0x7
	.long	0x412
	.uleb128 0x7
	.long	0x28b
	.uleb128 0x7
	.long	0x28b
	.uleb128 0x7
	.long	0x3eb
	.byte	0
	.uleb128 0x1c
	.string	"div"
	.byte	0x7
	.value	0x354
	.byte	0xe
	.long	0x2f7
	.long	0x4e4
	.uleb128 0x7
	.long	0x2f0
	.uleb128 0x7
	.long	0x2f0
	.byte	0
	.uleb128 0x16
	.long	.LASF44
	.byte	0x7
	.value	0x27a
	.byte	0xe
	.long	0x3c1
	.long	0x4fb
	.uleb128 0x7
	.long	0x380
	.byte	0
	.uleb128 0x16
	.long	.LASF45
	.byte	0x7
	.value	0x356
	.byte	0xf
	.long	0x332
	.long	0x517
	.uleb128 0x7
	.long	0x32b
	.uleb128 0x7
	.long	0x32b
	.byte	0
	.uleb128 0x16
	.long	.LASF46
	.byte	0x7
	.value	0x39a
	.byte	0xc
	.long	0x2f0
	.long	0x533
	.uleb128 0x7
	.long	0x380
	.uleb128 0x7
	.long	0x28b
	.byte	0
	.uleb128 0x1b
	.long	.LASF47
	.byte	0xb
	.byte	0x71
	.byte	0x1
	.long	0x28b
	.long	0x553
	.uleb128 0x7
	.long	0x553
	.uleb128 0x7
	.long	0x380
	.uleb128 0x7
	.long	0x28b
	.byte	0
	.uleb128 0x10
	.byte	0x8
	.long	0x559
	.uleb128 0xb
	.byte	0x4
	.byte	0x5
	.long	.LASF48
	.uleb128 0x11
	.long	0x559
	.uleb128 0x16
	.long	.LASF49
	.byte	0x7
	.value	0x39d
	.byte	0xc
	.long	0x2f0
	.long	0x586
	.uleb128 0x7
	.long	0x553
	.uleb128 0x7
	.long	0x380
	.uleb128 0x7
	.long	0x28b
	.byte	0
	.uleb128 0x1d
	.long	.LASF51
	.byte	0x7
	.value	0x33e
	.byte	0xd
	.long	0x5a8
	.uleb128 0x7
	.long	0x3bf
	.uleb128 0x7
	.long	0x28b
	.uleb128 0x7
	.long	0x28b
	.uleb128 0x7
	.long	0x3eb
	.byte	0
	.uleb128 0x1e
	.long	.LASF50
	.byte	0x7
	.value	0x26f
	.byte	0xd
	.long	0x5bb
	.uleb128 0x7
	.long	0x2f0
	.byte	0
	.uleb128 0x1f
	.long	.LASF104
	.byte	0x7
	.value	0x1c5
	.byte	0xc
	.long	0x2f0
	.uleb128 0x1d
	.long	.LASF52
	.byte	0x7
	.value	0x1c7
	.byte	0xd
	.long	0x5db
	.uleb128 0x7
	.long	0x29e
	.byte	0
	.uleb128 0x1b
	.long	.LASF53
	.byte	0x7
	.byte	0x75
	.byte	0xf
	.long	0x2ba
	.long	0x5f6
	.uleb128 0x7
	.long	0x380
	.uleb128 0x7
	.long	0x5f6
	.byte	0
	.uleb128 0x10
	.byte	0x8
	.long	0x3c1
	.uleb128 0x1b
	.long	.LASF54
	.byte	0x7
	.byte	0xb0
	.byte	0x11
	.long	0x32b
	.long	0x61c
	.uleb128 0x7
	.long	0x380
	.uleb128 0x7
	.long	0x5f6
	.uleb128 0x7
	.long	0x2f0
	.byte	0
	.uleb128 0x1b
	.long	.LASF55
	.byte	0x7
	.byte	0xb4
	.byte	0x1a
	.long	0x297
	.long	0x63c
	.uleb128 0x7
	.long	0x380
	.uleb128 0x7
	.long	0x5f6
	.uleb128 0x7
	.long	0x2f0
	.byte	0
	.uleb128 0x16
	.long	.LASF56
	.byte	0x7
	.value	0x310
	.byte	0xc
	.long	0x2f0
	.long	0x653
	.uleb128 0x7
	.long	0x380
	.byte	0
	.uleb128 0x1b
	.long	.LASF57
	.byte	0xb
	.byte	0x90
	.byte	0x1
	.long	0x28b
	.long	0x673
	.uleb128 0x7
	.long	0x3c1
	.uleb128 0x7
	.long	0x673
	.uleb128 0x7
	.long	0x28b
	.byte	0
	.uleb128 0x10
	.byte	0x8
	.long	0x560
	.uleb128 0x1b
	.long	.LASF58
	.byte	0xb
	.byte	0x53
	.byte	0x1
	.long	0x2f0
	.long	0x694
	.uleb128 0x7
	.long	0x3c1
	.uleb128 0x7
	.long	0x559
	.byte	0
	.uleb128 0x16
	.long	.LASF59
	.byte	0x7
	.value	0x35a
	.byte	0x1e
	.long	0x36d
	.long	0x6b0
	.uleb128 0x7
	.long	0x366
	.uleb128 0x7
	.long	0x366
	.byte	0
	.uleb128 0x16
	.long	.LASF60
	.byte	0x7
	.value	0x175
	.byte	0x1
	.long	0x366
	.long	0x6c7
	.uleb128 0x7
	.long	0x380
	.byte	0
	.uleb128 0x1b
	.long	.LASF61
	.byte	0x7
	.byte	0xc8
	.byte	0x16
	.long	0x366
	.long	0x6e7
	.uleb128 0x7
	.long	0x380
	.uleb128 0x7
	.long	0x5f6
	.uleb128 0x7
	.long	0x2f0
	.byte	0
	.uleb128 0x1b
	.long	.LASF62
	.byte	0x7
	.byte	0xcd
	.byte	0x1f
	.long	0x3e4
	.long	0x707
	.uleb128 0x7
	.long	0x380
	.uleb128 0x7
	.long	0x5f6
	.uleb128 0x7
	.long	0x2f0
	.byte	0
	.uleb128 0x1b
	.long	.LASF63
	.byte	0x7
	.byte	0x7b
	.byte	0xe
	.long	0x2b3
	.long	0x722
	.uleb128 0x7
	.long	0x380
	.uleb128 0x7
	.long	0x5f6
	.byte	0
	.uleb128 0x1b
	.long	.LASF64
	.byte	0x7
	.byte	0x7e
	.byte	0x14
	.long	0x2c1
	.long	0x73d
	.uleb128 0x7
	.long	0x380
	.uleb128 0x7
	.long	0x5f6
	.byte	0
	.uleb128 0x5
	.byte	0xc
	.byte	0x27
	.byte	0xc
	.long	0x419
	.uleb128 0x5
	.byte	0xc
	.byte	0x2b
	.byte	0xe
	.long	0x437
	.uleb128 0x5
	.byte	0xc
	.byte	0x2e
	.byte	0xe
	.long	0x5a8
	.uleb128 0x5
	.byte	0xc
	.byte	0x33
	.byte	0xc
	.long	0x2f7
	.uleb128 0x5
	.byte	0xc
	.byte	0x34
	.byte	0xc
	.long	0x332
	.uleb128 0x5
	.byte	0xc
	.byte	0x36
	.byte	0xc
	.long	0x146
	.uleb128 0xb
	.byte	0x10
	.byte	0x5
	.long	.LASF65
	.uleb128 0x5
	.byte	0xc
	.byte	0x36
	.byte	0xc
	.long	0x160
	.uleb128 0x5
	.byte	0xc
	.byte	0x36
	.byte	0xc
	.long	0x17a
	.uleb128 0x5
	.byte	0xc
	.byte	0x36
	.byte	0xc
	.long	0x194
	.uleb128 0x5
	.byte	0xc
	.byte	0x36
	.byte	0xc
	.long	0x1ae
	.uleb128 0x5
	.byte	0xc
	.byte	0x36
	.byte	0xc
	.long	0x1c8
	.uleb128 0x5
	.byte	0xc
	.byte	0x36
	.byte	0xc
	.long	0x1e2
	.uleb128 0x1c
	.string	"abs"
	.byte	0x7
	.value	0x348
	.byte	0xc
	.long	0x2f0
	.long	0x7bb
	.uleb128 0x7
	.long	0x2f0
	.byte	0
	.uleb128 0x5
	.byte	0xc
	.byte	0x36
	.byte	0xc
	.long	0x7a4
	.uleb128 0x5
	.byte	0xc
	.byte	0x37
	.byte	0xc
	.long	0x452
	.uleb128 0x5
	.byte	0xc
	.byte	0x38
	.byte	0xc
	.long	0x470
	.uleb128 0x5
	.byte	0xc
	.byte	0x39
	.byte	0xc
	.long	0x487
	.uleb128 0x5
	.byte	0xc
	.byte	0x3a
	.byte	0xc
	.long	0x49e
	.uleb128 0x5
	.byte	0xc
	.byte	0x3c
	.byte	0xc
	.long	0x26f
	.uleb128 0x5
	.byte	0xc
	.byte	0x3c
	.byte	0xc
	.long	0x1fc
	.uleb128 0x5
	.byte	0xc
	.byte	0x3c
	.byte	0xc
	.long	0x4c8
	.uleb128 0x5
	.byte	0xc
	.byte	0x3e
	.byte	0xc
	.long	0x4e4
	.uleb128 0x5
	.byte	0xc
	.byte	0x40
	.byte	0xc
	.long	0x4fb
	.uleb128 0x5
	.byte	0xc
	.byte	0x43
	.byte	0xc
	.long	0x517
	.uleb128 0x5
	.byte	0xc
	.byte	0x44
	.byte	0xc
	.long	0x533
	.uleb128 0x5
	.byte	0xc
	.byte	0x45
	.byte	0xc
	.long	0x565
	.uleb128 0x5
	.byte	0xc
	.byte	0x47
	.byte	0xc
	.long	0x586
	.uleb128 0x5
	.byte	0xc
	.byte	0x48
	.byte	0xc
	.long	0x5bb
	.uleb128 0x5
	.byte	0xc
	.byte	0x4a
	.byte	0xc
	.long	0x5c8
	.uleb128 0x5
	.byte	0xc
	.byte	0x4b
	.byte	0xc
	.long	0x5db
	.uleb128 0x5
	.byte	0xc
	.byte	0x4c
	.byte	0xc
	.long	0x5fc
	.uleb128 0x5
	.byte	0xc
	.byte	0x4d
	.byte	0xc
	.long	0x61c
	.uleb128 0x5
	.byte	0xc
	.byte	0x4e
	.byte	0xc
	.long	0x63c
	.uleb128 0x5
	.byte	0xc
	.byte	0x50
	.byte	0xc
	.long	0x653
	.uleb128 0x5
	.byte	0xc
	.byte	0x51
	.byte	0xc
	.long	0x679
	.uleb128 0x20
	.long	.LASF70
	.byte	0x1
	.byte	0x1
	.byte	0x35
	.byte	0x8
	.long	0x8b5
	.uleb128 0x21
	.long	.LASF66
	.byte	0x1
	.byte	0x36
	.byte	0x16
	.long	.LASF72
	.long	0x8b5
	.long	0x892
	.uleb128 0x7
	.long	0x8bc
	.byte	0
	.uleb128 0x22
	.string	"N"
	.long	0x2f0
	.byte	0x2
	.uleb128 0x22
	.string	"s"
	.long	0x2f0
	.byte	0x1
	.uleb128 0x23
	.long	.LASF67
	.long	0x2b3
	.uleb128 0x23
	.long	.LASF68
	.long	0x2f0
	.byte	0
	.uleb128 0xb
	.byte	0x1
	.byte	0x2
	.long	.LASF69
	.uleb128 0x10
	.byte	0x8
	.long	0x3df
	.uleb128 0x20
	.long	.LASF71
	.byte	0x1
	.byte	0x1
	.byte	0x35
	.byte	0x8
	.long	0x90c
	.uleb128 0x21
	.long	.LASF66
	.byte	0x1
	.byte	0x36
	.byte	0x16
	.long	.LASF73
	.long	0x8b5
	.long	0x8e9
	.uleb128 0x7
	.long	0x8bc
	.byte	0
	.uleb128 0x22
	.string	"N"
	.long	0x2f0
	.byte	0x2
	.uleb128 0x24
	.string	"s"
	.long	0x2f0
	.sleb128 -1
	.uleb128 0x23
	.long	.LASF67
	.long	0x2b3
	.uleb128 0x23
	.long	.LASF68
	.long	0x2f0
	.byte	0
	.uleb128 0x20
	.long	.LASF74
	.byte	0x1
	.byte	0x1
	.byte	0x3d
	.byte	0x8
	.long	0x956
	.uleb128 0x21
	.long	.LASF66
	.byte	0x1
	.byte	0x3e
	.byte	0x16
	.long	.LASF75
	.long	0x8b5
	.long	0x933
	.uleb128 0x7
	.long	0x8bc
	.byte	0
	.uleb128 0x22
	.string	"N"
	.long	0x2f0
	.byte	0x1
	.uleb128 0x22
	.string	"s"
	.long	0x2f0
	.byte	0x1
	.uleb128 0x23
	.long	.LASF67
	.long	0x2b3
	.uleb128 0x23
	.long	.LASF68
	.long	0x2f0
	.byte	0
	.uleb128 0x20
	.long	.LASF76
	.byte	0x1
	.byte	0x1
	.byte	0x9
	.byte	0x8
	.long	0x9a7
	.uleb128 0x21
	.long	.LASF66
	.byte	0x1
	.byte	0xa
	.byte	0x1c
	.long	.LASF77
	.long	0x2b3
	.long	0x98c
	.uleb128 0x7
	.long	0x3c1
	.uleb128 0x7
	.long	0x5f6
	.uleb128 0x7
	.long	0x8bc
	.uleb128 0x7
	.long	0x3d3
	.byte	0
	.uleb128 0x22
	.string	"n"
	.long	0x2f0
	.byte	0x2
	.uleb128 0x23
	.long	.LASF67
	.long	0x2b3
	.uleb128 0x23
	.long	.LASF68
	.long	0x2f0
	.byte	0
	.uleb128 0x20
	.long	.LASF78
	.byte	0x1
	.byte	0x1
	.byte	0x3d
	.byte	0x8
	.long	0x9f1
	.uleb128 0x21
	.long	.LASF66
	.byte	0x1
	.byte	0x3e
	.byte	0x16
	.long	.LASF79
	.long	0x8b5
	.long	0x9ce
	.uleb128 0x7
	.long	0x8bc
	.byte	0
	.uleb128 0x22
	.string	"N"
	.long	0x2f0
	.byte	0x1
	.uleb128 0x24
	.string	"s"
	.long	0x2f0
	.sleb128 -1
	.uleb128 0x23
	.long	.LASF67
	.long	0x2b3
	.uleb128 0x23
	.long	.LASF68
	.long	0x2f0
	.byte	0
	.uleb128 0x20
	.long	.LASF80
	.byte	0x1
	.byte	0x1
	.byte	0x18
	.byte	0x8
	.long	0xa42
	.uleb128 0x21
	.long	.LASF66
	.byte	0x1
	.byte	0x19
	.byte	0x1c
	.long	.LASF81
	.long	0x2b3
	.long	0xa27
	.uleb128 0x7
	.long	0x3c1
	.uleb128 0x7
	.long	0x5f6
	.uleb128 0x7
	.long	0x8bc
	.uleb128 0x7
	.long	0x3d3
	.byte	0
	.uleb128 0x22
	.string	"n"
	.long	0x2f0
	.byte	0x1
	.uleb128 0x23
	.long	.LASF67
	.long	0x2b3
	.uleb128 0x23
	.long	.LASF68
	.long	0x2f0
	.byte	0
	.uleb128 0x25
	.long	0x9fe
	.byte	0x3
	.long	0xabd
	.uleb128 0x26
	.string	"src"
	.byte	0x1
	.byte	0x19
	.byte	0x27
	.long	0x3c1
	.uleb128 0x1a
	.long	.LASF83
	.byte	0x1
	.byte	0x19
	.byte	0x33
	.long	0x5f6
	.uleb128 0x1a
	.long	.LASF84
	.byte	0x1
	.byte	0x19
	.byte	0x48
	.long	0x8bc
	.uleb128 0x26
	.string	"i"
	.byte	0x1
	.byte	0x19
	.byte	0x59
	.long	0x3d3
	.uleb128 0x27
	.string	"i0"
	.byte	0x1
	.byte	0x1a
	.byte	0x11
	.long	0x2f0
	.uleb128 0x27
	.string	"i1"
	.byte	0x1
	.byte	0x1b
	.byte	0x11
	.long	0x2f0
	.uleb128 0x27
	.string	"w0"
	.byte	0x1
	.byte	0x1c
	.byte	0x12
	.long	0x2b3
	.uleb128 0x27
	.string	"w1"
	.byte	0x1
	.byte	0x1d
	.byte	0x12
	.long	0x2b3
	.uleb128 0x27
	.string	"t0"
	.byte	0x1
	.byte	0x1e
	.byte	0x12
	.long	0x2b3
	.uleb128 0x27
	.string	"t1"
	.byte	0x1
	.byte	0x1f
	.byte	0x12
	.long	0x2b3
	.byte	0
	.uleb128 0x25
	.long	0x9b4
	.byte	0x3
	.long	0xad4
	.uleb128 0x1a
	.long	.LASF84
	.byte	0x1
	.byte	0x3e
	.byte	0x2a
	.long	0x8bc
	.byte	0
	.uleb128 0x25
	.long	0x963
	.byte	0x3
	.long	0xb4f
	.uleb128 0x26
	.string	"src"
	.byte	0x1
	.byte	0xa
	.byte	0x27
	.long	0x3c1
	.uleb128 0x1a
	.long	.LASF83
	.byte	0x1
	.byte	0xa
	.byte	0x33
	.long	0x5f6
	.uleb128 0x1a
	.long	.LASF84
	.byte	0x1
	.byte	0xa
	.byte	0x48
	.long	0x8bc
	.uleb128 0x26
	.string	"i"
	.byte	0x1
	.byte	0xa
	.byte	0x59
	.long	0x3d3
	.uleb128 0x27
	.string	"i0"
	.byte	0x1
	.byte	0xb
	.byte	0x11
	.long	0x2f0
	.uleb128 0x27
	.string	"i1"
	.byte	0x1
	.byte	0xc
	.byte	0x11
	.long	0x2f0
	.uleb128 0x27
	.string	"w0"
	.byte	0x1
	.byte	0xd
	.byte	0x12
	.long	0x2b3
	.uleb128 0x27
	.string	"w1"
	.byte	0x1
	.byte	0xe
	.byte	0x12
	.long	0x2b3
	.uleb128 0x27
	.string	"t0"
	.byte	0x1
	.byte	0x10
	.byte	0x12
	.long	0x2b3
	.uleb128 0x27
	.string	"t1"
	.byte	0x1
	.byte	0x11
	.byte	0x12
	.long	0x2b3
	.byte	0
	.uleb128 0x25
	.long	0x919
	.byte	0x3
	.long	0xb66
	.uleb128 0x1a
	.long	.LASF84
	.byte	0x1
	.byte	0x3e
	.byte	0x2a
	.long	0x8bc
	.byte	0
	.uleb128 0x28
	.long	.LASF85
	.byte	0x1
	.byte	0x2e
	.byte	0x14
	.long	0x8b5
	.byte	0x3
	.long	0xb96
	.uleb128 0x23
	.long	.LASF67
	.long	0x2b3
	.uleb128 0x23
	.long	.LASF68
	.long	0x2f0
	.uleb128 0x1a
	.long	.LASF84
	.byte	0x1
	.byte	0x2e
	.byte	0x38
	.long	0x8bc
	.byte	0
	.uleb128 0x25
	.long	0x8cf
	.byte	0x3
	.long	0xbad
	.uleb128 0x1a
	.long	.LASF84
	.byte	0x1
	.byte	0x36
	.byte	0x2a
	.long	0x8bc
	.byte	0
	.uleb128 0x28
	.long	.LASF86
	.byte	0x1
	.byte	0x25
	.byte	0x18
	.long	0x2b3
	.byte	0x3
	.long	0xc07
	.uleb128 0x22
	.string	"n"
	.long	0x2f0
	.byte	0x2
	.uleb128 0x23
	.long	.LASF67
	.long	0x2b3
	.uleb128 0x23
	.long	.LASF68
	.long	0x2f0
	.uleb128 0x26
	.string	"src"
	.byte	0x1
	.byte	0x25
	.byte	0x2c
	.long	0x3c1
	.uleb128 0x1a
	.long	.LASF83
	.byte	0x1
	.byte	0x25
	.byte	0x38
	.long	0x5f6
	.uleb128 0x1a
	.long	.LASF84
	.byte	0x1
	.byte	0x25
	.byte	0x4d
	.long	0x8bc
	.uleb128 0x26
	.string	"i"
	.byte	0x1
	.byte	0x25
	.byte	0x5e
	.long	0x3d3
	.byte	0
	.uleb128 0x25
	.long	0x878
	.byte	0x3
	.long	0xc1e
	.uleb128 0x1a
	.long	.LASF84
	.byte	0x1
	.byte	0x36
	.byte	0x2a
	.long	0x8bc
	.byte	0
	.uleb128 0x28
	.long	.LASF87
	.byte	0x1
	.byte	0x44
	.byte	0x14
	.long	0x8b5
	.byte	0x3
	.long	0xc5e
	.uleb128 0x22
	.string	"n"
	.long	0x2f0
	.byte	0x2
	.uleb128 0x24
	.string	"s"
	.long	0x2f0
	.sleb128 -1
	.uleb128 0x23
	.long	.LASF67
	.long	0x2b3
	.uleb128 0x23
	.long	.LASF68
	.long	0x2f0
	.uleb128 0x1a
	.long	.LASF84
	.byte	0x1
	.byte	0x44
	.byte	0x36
	.long	0x8bc
	.byte	0
	.uleb128 0x29
	.long	.LASF105
	.byte	0x1
	.byte	0x4a
	.byte	0x1
	.byte	0x3
	.long	0xcce
	.uleb128 0x23
	.long	.LASF67
	.long	0x2b3
	.uleb128 0x23
	.long	.LASF68
	.long	0x2f0
	.uleb128 0x2a
	.long	.LASF88
	.long	0x2f0
	.byte	0x2
	.uleb128 0x1a
	.long	.LASF83
	.byte	0x1
	.byte	0x4a
	.byte	0x13
	.long	0x5f6
	.uleb128 0x1a
	.long	.LASF84
	.byte	0x1
	.byte	0x4a
	.byte	0x28
	.long	0x8bc
	.uleb128 0x26
	.string	"n"
	.byte	0x1
	.byte	0x4a
	.byte	0x39
	.long	0x3d3
	.uleb128 0x27
	.string	"dst"
	.byte	0x1
	.byte	0x4b
	.byte	0x9
	.long	0x3c1
	.uleb128 0x27
	.string	"src"
	.byte	0x1
	.byte	0x4c
	.byte	0x9
	.long	0x3c1
	.uleb128 0x2b
	.uleb128 0x27
	.string	"i"
	.byte	0x1
	.byte	0x4d
	.byte	0x10
	.long	0x3d3
	.byte	0
	.byte	0
	.uleb128 0x28
	.long	.LASF89
	.byte	0x1
	.byte	0x44
	.byte	0x14
	.long	0x8b5
	.byte	0x3
	.long	0xd0e
	.uleb128 0x22
	.string	"n"
	.long	0x2f0
	.byte	0x2
	.uleb128 0x22
	.string	"s"
	.long	0x2f0
	.byte	0x1
	.uleb128 0x23
	.long	.LASF67
	.long	0x2b3
	.uleb128 0x23
	.long	.LASF68
	.long	0x2f0
	.uleb128 0x1a
	.long	.LASF84
	.byte	0x1
	.byte	0x44
	.byte	0x36
	.long	0x8bc
	.byte	0
	.uleb128 0x2c
	.long	.LASF90
	.byte	0x1
	.byte	0x54
	.byte	0x6
	.long	.LASF106
	.byte	0x1
	.long	0xd5e
	.uleb128 0x23
	.long	.LASF67
	.long	0x2b3
	.uleb128 0x23
	.long	.LASF68
	.long	0x2f0
	.uleb128 0x2a
	.long	.LASF88
	.long	0x2f0
	.byte	0x2
	.uleb128 0x1a
	.long	.LASF83
	.byte	0x1
	.byte	0x54
	.byte	0x24
	.long	0x5f6
	.uleb128 0x1a
	.long	.LASF84
	.byte	0x1
	.byte	0x54
	.byte	0x39
	.long	0x8bc
	.uleb128 0x26
	.string	"n"
	.byte	0x1
	.byte	0x54
	.byte	0x4a
	.long	0x3d3
	.byte	0
	.uleb128 0x2d
	.long	.LASF107
	.byte	0x1
	.byte	0x6c
	.byte	0x5
	.long	0x2f0
	.quad	.LFB35
	.quad	.LFE35-.LFB35
	.uleb128 0x1
	.byte	0x9c
	.long	0x1223
	.uleb128 0x2e
	.long	.LASF91
	.byte	0x1
	.byte	0x6c
	.byte	0xe
	.long	0x2f0
	.long	.LLST0
	.long	.LVUS0
	.uleb128 0x2e
	.long	.LASF92
	.byte	0x1
	.byte	0x6c
	.byte	0x1c
	.long	0x5f6
	.long	.LLST1
	.long	.LVUS1
	.uleb128 0x2f
	.long	.LASF93
	.byte	0x1
	.byte	0x6e
	.byte	0x13
	.long	0x3df
	.value	0x140
	.uleb128 0x30
	.long	.LASF94
	.byte	0x1
	.byte	0x6f
	.byte	0x13
	.long	0x3df
	.byte	0x4
	.uleb128 0x31
	.long	.LASF95
	.byte	0x1
	.byte	0x70
	.byte	0xb
	.long	0x2b3
	.byte	0x4
	.long	0
	.uleb128 0x32
	.long	.LASF96
	.long	0x1233
	.uleb128 0x9
	.byte	0x3
	.quad	.LC0
	.uleb128 0x33
	.long	.LASF97
	.byte	0x1
	.byte	0x74
	.byte	0xb
	.long	0x1238
	.uleb128 0x4
	.byte	0x91
	.sleb128 -11616
	.uleb128 0x33
	.long	.LASF98
	.byte	0x1
	.byte	0x79
	.byte	0xb
	.long	0x1248
	.uleb128 0x4
	.byte	0x91
	.sleb128 -11600
	.uleb128 0x34
	.string	"ix0"
	.byte	0x1
	.byte	0x7a
	.byte	0xd
	.long	0x1259
	.uleb128 0x4
	.byte	0x91
	.sleb128 -10320
	.uleb128 0x34
	.string	"ix1"
	.byte	0x1
	.byte	0x7a
	.byte	0x1b
	.long	0x1259
	.uleb128 0x4
	.byte	0x91
	.sleb128 -9040
	.uleb128 0x34
	.string	"iy0"
	.byte	0x1
	.byte	0x7a
	.byte	0x29
	.long	0x1259
	.uleb128 0x3
	.byte	0x91
	.sleb128 -7760
	.uleb128 0x34
	.string	"iy1"
	.byte	0x1
	.byte	0x7a
	.byte	0x37
	.long	0x1259
	.uleb128 0x3
	.byte	0x91
	.sleb128 -6480
	.uleb128 0x34
	.string	"wx0"
	.byte	0x1
	.byte	0x7b
	.byte	0xb
	.long	0x1248
	.uleb128 0x3
	.byte	0x91
	.sleb128 -5200
	.uleb128 0x34
	.string	"wx1"
	.byte	0x1
	.byte	0x7b
	.byte	0x19
	.long	0x1248
	.uleb128 0x3
	.byte	0x91
	.sleb128 -3920
	.uleb128 0x34
	.string	"wy0"
	.byte	0x1
	.byte	0x7b
	.byte	0x27
	.long	0x1248
	.uleb128 0x3
	.byte	0x91
	.sleb128 -2640
	.uleb128 0x34
	.string	"wy1"
	.byte	0x1
	.byte	0x7b
	.byte	0x35
	.long	0x1248
	.uleb128 0x3
	.byte	0x91
	.sleb128 -1360
	.uleb128 0x35
	.long	.LASF83
	.byte	0x1
	.byte	0x8a
	.byte	0xc
	.long	0x126a
	.uleb128 0x35
	.long	.LASF84
	.byte	0x1
	.byte	0x97
	.byte	0xd
	.long	0x127a
	.uleb128 0x36
	.quad	.LBB110
	.quad	.LBE110-.LBB110
	.long	0xecb
	.uleb128 0x37
	.string	"i"
	.byte	0x1
	.byte	0x75
	.byte	0xe
	.long	0x2f0
	.long	.LLST2
	.long	.LVUS2
	.byte	0
	.uleb128 0x36
	.quad	.LBB111
	.quad	.LBE111-.LBB111
	.long	0xf35
	.uleb128 0x37
	.string	"i"
	.byte	0x1
	.byte	0x7d
	.byte	0xe
	.long	0x2f0
	.long	.LLST3
	.long	.LVUS3
	.uleb128 0x38
	.long	0x452
	.quad	.LBI112
	.byte	.LVU24
	.quad	.LBB112
	.quad	.LBE112-.LBB112
	.byte	0x1
	.byte	0x7e
	.byte	0x18
	.uleb128 0x39
	.long	0x463
	.long	.LLST4
	.long	.LVUS4
	.uleb128 0x3a
	.quad	.LVL5
	.long	0x5db
	.uleb128 0x3b
	.uleb128 0x1
	.byte	0x54
	.uleb128 0x1
	.byte	0x30
	.byte	0
	.byte	0
	.byte	0
	.uleb128 0x3c
	.long	0xd0e
	.quad	.LBB114
	.quad	.LBE114-.LBB114
	.byte	0x1
	.byte	0xaf
	.byte	0x2e
	.long	0x11d6
	.uleb128 0x3d
	.long	0xd53
	.uleb128 0x3d
	.long	0xd47
	.uleb128 0x3d
	.long	0xd3b
	.uleb128 0x3e
	.long	0xc5e
	.quad	.LBB115
	.quad	.LBE115-.LBB115
	.byte	0x1
	.byte	0x5a
	.byte	0x2f
	.uleb128 0x3d
	.long	0xc9f
	.uleb128 0x3d
	.long	0xc93
	.uleb128 0x3d
	.long	0xc87
	.uleb128 0x3f
	.long	0xca9
	.uleb128 0x3f
	.long	0xcb5
	.uleb128 0x40
	.long	0xcc1
	.quad	.LBB117
	.quad	.LBE117-.LBB117
	.uleb128 0x41
	.long	0xcc2
	.long	.LLST5
	.long	.LVUS5
	.uleb128 0x42
	.long	0xbad
	.quad	.LBI118
	.byte	.LVU69
	.long	.Ldebug_ranges0+0
	.byte	0x1
	.byte	0x4e
	.byte	0x53
	.uleb128 0x39
	.long	0xbfc
	.long	.LLST6
	.long	.LVUS6
	.uleb128 0x39
	.long	0xbf0
	.long	.LLST7
	.long	.LVUS7
	.uleb128 0x39
	.long	0xbe4
	.long	.LLST8
	.long	.LVUS8
	.uleb128 0x39
	.long	0xbd8
	.long	.LLST9
	.long	.LVUS9
	.uleb128 0x42
	.long	0xad4
	.quad	.LBI119
	.byte	.LVU70
	.long	.Ldebug_ranges0+0
	.byte	0x1
	.byte	0x26
	.byte	0x32
	.uleb128 0x39
	.long	0xb02
	.long	.LLST10
	.long	.LVUS10
	.uleb128 0x39
	.long	0xaf6
	.long	.LLST11
	.long	.LVUS11
	.uleb128 0x39
	.long	0xaea
	.long	.LLST12
	.long	.LVUS12
	.uleb128 0x39
	.long	0xade
	.long	.LLST13
	.long	.LVUS13
	.uleb128 0x43
	.long	.Ldebug_ranges0+0
	.uleb128 0x41
	.long	0xb0c
	.long	.LLST14
	.long	.LVUS14
	.uleb128 0x41
	.long	0xb17
	.long	.LLST15
	.long	.LVUS15
	.uleb128 0x41
	.long	0xb22
	.long	.LLST16
	.long	.LVUS16
	.uleb128 0x41
	.long	0xb2d
	.long	.LLST17
	.long	.LVUS17
	.uleb128 0x41
	.long	0xb38
	.long	.LLST18
	.long	.LVUS18
	.uleb128 0x41
	.long	0xb43
	.long	.LLST19
	.long	.LVUS19
	.uleb128 0x44
	.long	0xa42
	.quad	.LBI121
	.byte	.LVU71
	.long	.Ldebug_ranges0+0x30
	.byte	0x1
	.byte	0x10
	.byte	0x43
	.long	0x113a
	.uleb128 0x39
	.long	0xa70
	.long	.LLST20
	.long	.LVUS20
	.uleb128 0x39
	.long	0xa64
	.long	.LLST21
	.long	.LVUS21
	.uleb128 0x39
	.long	0xa58
	.long	.LLST22
	.long	.LVUS22
	.uleb128 0x39
	.long	0xa4c
	.long	.LLST23
	.long	.LVUS23
	.uleb128 0x43
	.long	.Ldebug_ranges0+0x30
	.uleb128 0x41
	.long	0xa7a
	.long	.LLST24
	.long	.LVUS24
	.uleb128 0x41
	.long	0xa85
	.long	.LLST25
	.long	.LVUS25
	.uleb128 0x41
	.long	0xa90
	.long	.LLST26
	.long	.LVUS26
	.uleb128 0x41
	.long	0xa9b
	.long	.LLST27
	.long	.LVUS27
	.uleb128 0x41
	.long	0xaa6
	.long	.LLST28
	.long	.LVUS28
	.uleb128 0x41
	.long	0xab1
	.long	.LLST29
	.long	.LVUS29
	.byte	0
	.byte	0
	.uleb128 0x42
	.long	0xa42
	.quad	.LBI124
	.byte	.LVU81
	.long	.Ldebug_ranges0+0x60
	.byte	0x1
	.byte	0x11
	.byte	0x43
	.uleb128 0x39
	.long	0xa70
	.long	.LLST30
	.long	.LVUS30
	.uleb128 0x39
	.long	0xa64
	.long	.LLST31
	.long	.LVUS31
	.uleb128 0x39
	.long	0xa58
	.long	.LLST32
	.long	.LVUS32
	.uleb128 0x39
	.long	0xa4c
	.long	.LLST33
	.long	.LVUS33
	.uleb128 0x43
	.long	.Ldebug_ranges0+0x60
	.uleb128 0x41
	.long	0xa7a
	.long	.LLST34
	.long	.LVUS34
	.uleb128 0x41
	.long	0xa85
	.long	.LLST35
	.long	.LVUS35
	.uleb128 0x41
	.long	0xa90
	.long	.LLST36
	.long	.LVUS36
	.uleb128 0x3f
	.long	0xa9b
	.uleb128 0x41
	.long	0xaa6
	.long	.LLST37
	.long	.LVUS37
	.uleb128 0x41
	.long	0xab1
	.long	.LLST38
	.long	.LVUS38
	.byte	0
	.byte	0
	.byte	0
	.byte	0
	.byte	0
	.byte	0
	.byte	0
	.byte	0
	.uleb128 0x45
	.quad	.LVL22
	.long	0x12a8
	.long	0x1215
	.uleb128 0x3b
	.uleb128 0x1
	.byte	0x55
	.uleb128 0x9
	.byte	0x3
	.quad	.LC2
	.uleb128 0x3b
	.uleb128 0x1
	.byte	0x54
	.uleb128 0x9
	.byte	0x3
	.quad	.LC1
	.uleb128 0x3b
	.uleb128 0x1
	.byte	0x51
	.uleb128 0x2
	.byte	0x8
	.byte	0x72
	.uleb128 0x3b
	.uleb128 0x1
	.byte	0x52
	.uleb128 0x9
	.byte	0x3
	.quad	.LC0
	.byte	0
	.uleb128 0x46
	.quad	.LVL23
	.long	0x12b4
	.byte	0
	.uleb128 0x47
	.long	0x38d
	.long	0x1233
	.uleb128 0x48
	.long	0x297
	.byte	0x15
	.byte	0
	.uleb128 0x11
	.long	0x1223
	.uleb128 0x47
	.long	0x2b3
	.long	0x1248
	.uleb128 0x48
	.long	0x297
	.byte	0x3
	.byte	0
	.uleb128 0x47
	.long	0x2b3
	.long	0x1259
	.uleb128 0x49
	.long	0x297
	.value	0x13f
	.byte	0
	.uleb128 0x47
	.long	0x3c7
	.long	0x126a
	.uleb128 0x49
	.long	0x297
	.value	0x13f
	.byte	0
	.uleb128 0x47
	.long	0x3c1
	.long	0x127a
	.uleb128 0x48
	.long	0x297
	.byte	0x9
	.byte	0
	.uleb128 0x47
	.long	0x3d3
	.long	0x128a
	.uleb128 0x48
	.long	0x297
	.byte	0x9
	.byte	0
	.uleb128 0x28
	.long	.LASF99
	.byte	0x1
	.byte	0x29
	.byte	0x14
	.long	0x8b5
	.byte	0x3
	.long	0x12a8
	.uleb128 0x1a
	.long	.LASF84
	.byte	0x1
	.byte	0x29
	.byte	0x32
	.long	0x8bc
	.byte	0
	.uleb128 0x4a
	.long	.LASF108
	.long	.LASF108
	.byte	0xe
	.byte	0x45
	.byte	0xd
	.uleb128 0x4b
	.long	.LASF109
	.long	.LASF109
	.byte	0
	.section	.debug_abbrev,"",@progbits
.Ldebug_abbrev0:
	.uleb128 0x1
	.uleb128 0x11
	.byte	0x1
	.uleb128 0x25
	.uleb128 0xe
	.uleb128 0x13
	.uleb128 0xb
	.uleb128 0x3
	.uleb128 0xe
	.uleb128 0x1b
	.uleb128 0xe
	.uleb128 0x55
	.uleb128 0x17
	.uleb128 0x11
	.uleb128 0x1
	.uleb128 0x10
	.uleb128 0x17
	.byte	0
	.byte	0
	.uleb128 0x2
	.uleb128 0x39
	.byte	0x1
	.uleb128 0x3
	.uleb128 0x8
	.uleb128 0x3a
	.uleb128 0xb
	.uleb128 0x3b
	.uleb128 0xb
	.uleb128 0x1
	.uleb128 0x13
	.byte	0
	.byte	0
	.uleb128 0x3
	.uleb128 0x39
	.byte	0
	.uleb128 0x3
	.uleb128 0xe
	.uleb128 0x3a
	.uleb128 0xb
	.uleb128 0x3b
	.uleb128 0x5
	.uleb128 0x39
	.uleb128 0xb
	.uleb128 0x89
	.uleb128 0x19
	.byte	0
	.byte	0
	.uleb128 0x4
	.uleb128 0x3a
	.byte	0
	.uleb128 0x3a
	.uleb128 0xb
	.uleb128 0x3b
	.uleb128 0x5
	.uleb128 0x39
	.uleb128 0xb
	.uleb128 0x18
	.uleb128 0x13
	.byte	0
	.byte	0
	.uleb128 0x5
	.uleb128 0x8
	.byte	0
	.uleb128 0x3a
	.uleb128 0xb
	.uleb128 0x3b
	.uleb128 0xb
	.uleb128 0x39
	.uleb128 0xb
	.uleb128 0x18
	.uleb128 0x13
	.byte	0
	.byte	0
	.uleb128 0x6
	.uleb128 0x2e
	.byte	0x1
	.uleb128 0x3f
	.uleb128 0x19
	.uleb128 0x3
	.uleb128 0x8
	.uleb128 0x3a
	.uleb128 0xb
	.uleb128 0x3b
	.uleb128 0xb
	.uleb128 0x39
	.uleb128 0xb
	.uleb128 0x6e
	.uleb128 0xe
	.uleb128 0x49
	.uleb128 0x13
	.uleb128 0x3c
	.uleb128 0x19
	.uleb128 0x1
	.uleb128 0x13
	.byte	0
	.byte	0
	.uleb128 0x7
	.uleb128 0x5
	.byte	0
	.uleb128 0x49
	.uleb128 0x13
	.byte	0
	.byte	0
	.uleb128 0x8
	.uleb128 0x2e
	.byte	0x1
	.uleb128 0x3f
	.uleb128 0x19
	.uleb128 0x3
	.uleb128 0x8
	.uleb128 0x3a
	.uleb128 0xb
	.uleb128 0x3b
	.uleb128 0xb
	.uleb128 0x39
	.uleb128 0xb
	.uleb128 0x6e
	.uleb128 0xe
	.uleb128 0x49
	.uleb128 0x13
	.uleb128 0x3c
	.uleb128 0x19
	.byte	0
	.byte	0
	.uleb128 0x9
	.uleb128 0x39
	.byte	0x1
	.uleb128 0x3
	.uleb128 0xe
	.uleb128 0x3a
	.uleb128 0xb
	.uleb128 0x3b
	.uleb128 0x5
	.uleb128 0x39
	.uleb128 0xb
	.uleb128 0x1
	.uleb128 0x13
	.byte	0
	.byte	0
	.uleb128 0xa
	.uleb128 0x16
	.byte	0
	.uleb128 0x3
	.uleb128 0xe
	.uleb128 0x3a
	.uleb128 0xb
	.uleb128 0x3b
	.uleb128 0xb
	.uleb128 0x39
	.uleb128 0xb
	.uleb128 0x49
	.uleb128 0x13
	.byte	0
	.byte	0
	.uleb128 0xb
	.uleb128 0x24
	.byte	0
	.uleb128 0xb
	.uleb128 0xb
	.uleb128 0x3e
	.uleb128 0xb
	.uleb128 0x3
	.uleb128 0xe
	.byte	0
	.byte	0
	.uleb128 0xc
	.uleb128 0x13
	.byte	0x1
	.uleb128 0xb
	.uleb128 0xb
	.uleb128 0x3a
	.uleb128 0xb
	.uleb128 0x3b
	.uleb128 0xb
	.uleb128 0x39
	.uleb128 0xb
	.uleb128 0x6e
	.uleb128 0xe
	.uleb128 0x1
	.uleb128 0x13
	.byte	0
	.byte	0
	.uleb128 0xd
	.uleb128 0xd
	.byte	0
	.uleb128 0x3
	.uleb128 0xe
	.uleb128 0x3a
	.uleb128 0xb
	.uleb128 0x3b
	.uleb128 0xb
	.uleb128 0x39
	.uleb128 0xb
	.uleb128 0x49
	.uleb128 0x13
	.uleb128 0x38
	.uleb128 0xb
	.byte	0
	.byte	0
	.uleb128 0xe
	.uleb128 0xd
	.byte	0
	.uleb128 0x3
	.uleb128 0x8
	.uleb128 0x3a
	.uleb128 0xb
	.uleb128 0x3b
	.uleb128 0xb
	.uleb128 0x39
	.uleb128 0xb
	.uleb128 0x49
	.uleb128 0x13
	.uleb128 0x38
	.uleb128 0xb
	.byte	0
	.byte	0
	.uleb128 0xf
	.uleb128 0x24
	.byte	0
	.uleb128 0xb
	.uleb128 0xb
	.uleb128 0x3e
	.uleb128 0xb
	.uleb128 0x3
	.uleb128 0x8
	.byte	0
	.byte	0
	.uleb128 0x10
	.uleb128 0xf
	.byte	0
	.uleb128 0xb
	.uleb128 0xb
	.uleb128 0x49
	.uleb128 0x13
	.byte	0
	.byte	0
	.uleb128 0x11
	.uleb128 0x26
	.byte	0
	.uleb128 0x49
	.uleb128 0x13
	.byte	0
	.byte	0
	.uleb128 0x12
	.uleb128 0xf
	.byte	0
	.uleb128 0xb
	.uleb128 0xb
	.byte	0
	.byte	0
	.uleb128 0x13
	.uleb128 0x16
	.byte	0
	.uleb128 0x3
	.uleb128 0xe
	.uleb128 0x3a
	.uleb128 0xb
	.uleb128 0x3b
	.uleb128 0x5
	.uleb128 0x39
	.uleb128 0xb
	.uleb128 0x49
	.uleb128 0x13
	.byte	0
	.byte	0
	.uleb128 0x14
	.uleb128 0x15
	.byte	0x1
	.uleb128 0x49
	.uleb128 0x13
	.uleb128 0x1
	.uleb128 0x13
	.byte	0
	.byte	0
	.uleb128 0x15
	.uleb128 0x26
	.byte	0
	.byte	0
	.byte	0
	.uleb128 0x16
	.uleb128 0x2e
	.byte	0x1
	.uleb128 0x3f
	.uleb128 0x19
	.uleb128 0x3
	.uleb128 0xe
	.uleb128 0x3a
	.uleb128 0xb
	.uleb128 0x3b
	.uleb128 0x5
	.uleb128 0x39
	.uleb128 0xb
	.uleb128 0x49
	.uleb128 0x13
	.uleb128 0x3c
	.uleb128 0x19
	.uleb128 0x1
	.uleb128 0x13
	.byte	0
	.byte	0
	.uleb128 0x17
	.uleb128 0x15
	.byte	0
	.byte	0
	.byte	0
	.uleb128 0x18
	.uleb128 0x2e
	.byte	0x1
	.uleb128 0x3f
	.uleb128 0x19
	.uleb128 0x3
	.uleb128 0xe
	.uleb128 0x3a
	.uleb128 0xb
	.uleb128 0x3b
	.uleb128 0x5
	.uleb128 0x39
	.uleb128 0xb
	.uleb128 0x6e
	.uleb128 0xe
	.uleb128 0x49
	.uleb128 0x13
	.uleb128 0x3c
	.uleb128 0x19
	.uleb128 0x1
	.uleb128 0x13
	.byte	0
	.byte	0
	.uleb128 0x19
	.uleb128 0x2e
	.byte	0x1
	.uleb128 0x3f
	.uleb128 0x19
	.uleb128 0x3
	.uleb128 0xe
	.uleb128 0x3a
	.uleb128 0xb
	.uleb128 0x3b
	.uleb128 0xb
	.uleb128 0x39
	.uleb128 0xb
	.uleb128 0x49
	.uleb128 0x13
	.uleb128 0x20
	.uleb128 0xb
	.uleb128 0x1
	.uleb128 0x13
	.byte	0
	.byte	0
	.uleb128 0x1a
	.uleb128 0x5
	.byte	0
	.uleb128 0x3
	.uleb128 0xe
	.uleb128 0x3a
	.uleb128 0xb
	.uleb128 0x3b
	.uleb128 0xb
	.uleb128 0x39
	.uleb128 0xb
	.uleb128 0x49
	.uleb128 0x13
	.byte	0
	.byte	0
	.uleb128 0x1b
	.uleb128 0x2e
	.byte	0x1
	.uleb128 0x3f
	.uleb128 0x19
	.uleb128 0x3
	.uleb128 0xe
	.uleb128 0x3a
	.uleb128 0xb
	.uleb128 0x3b
	.uleb128 0xb
	.uleb128 0x39
	.uleb128 0xb
	.uleb128 0x49
	.uleb128 0x13
	.uleb128 0x3c
	.uleb128 0x19
	.uleb128 0x1
	.uleb128 0x13
	.byte	0
	.byte	0
	.uleb128 0x1c
	.uleb128 0x2e
	.byte	0x1
	.uleb128 0x3f
	.uleb128 0x19
	.uleb128 0x3
	.uleb128 0x8
	.uleb128 0x3a
	.uleb128 0xb
	.uleb128 0x3b
	.uleb128 0x5
	.uleb128 0x39
	.uleb128 0xb
	.uleb128 0x49
	.uleb128 0x13
	.uleb128 0x3c
	.uleb128 0x19
	.uleb128 0x1
	.uleb128 0x13
	.byte	0
	.byte	0
	.uleb128 0x1d
	.uleb128 0x2e
	.byte	0x1
	.uleb128 0x3f
	.uleb128 0x19
	.uleb128 0x3
	.uleb128 0xe
	.uleb128 0x3a
	.uleb128 0xb
	.uleb128 0x3b
	.uleb128 0x5
	.uleb128 0x39
	.uleb128 0xb
	.uleb128 0x3c
	.uleb128 0x19
	.uleb128 0x1
	.uleb128 0x13
	.byte	0
	.byte	0
	.uleb128 0x1e
	.uleb128 0x2e
	.byte	0x1
	.uleb128 0x3f
	.uleb128 0x19
	.uleb128 0x3
	.uleb128 0xe
	.uleb128 0x3a
	.uleb128 0xb
	.uleb128 0x3b
	.uleb128 0x5
	.uleb128 0x39
	.uleb128 0xb
	.uleb128 0x87
	.uleb128 0x19
	.uleb128 0x3c
	.uleb128 0x19
	.uleb128 0x1
	.uleb128 0x13
	.byte	0
	.byte	0
	.uleb128 0x1f
	.uleb128 0x2e
	.byte	0
	.uleb128 0x3f
	.uleb128 0x19
	.uleb128 0x3
	.uleb128 0xe
	.uleb128 0x3a
	.uleb128 0xb
	.uleb128 0x3b
	.uleb128 0x5
	.uleb128 0x39
	.uleb128 0xb
	.uleb128 0x49
	.uleb128 0x13
	.uleb128 0x3c
	.uleb128 0x19
	.byte	0
	.byte	0
	.uleb128 0x20
	.uleb128 0x13
	.byte	0x1
	.uleb128 0x3
	.uleb128 0xe
	.uleb128 0xb
	.uleb128 0xb
	.uleb128 0x3a
	.uleb128 0xb
	.uleb128 0x3b
	.uleb128 0xb
	.uleb128 0x39
	.uleb128 0xb
	.uleb128 0x1
	.uleb128 0x13
	.byte	0
	.byte	0
	.uleb128 0x21
	.uleb128 0x2e
	.byte	0x1
	.uleb128 0x3f
	.uleb128 0x19
	.uleb128 0x3
	.uleb128 0xe
	.uleb128 0x3a
	.uleb128 0xb
	.uleb128 0x3b
	.uleb128 0xb
	.uleb128 0x39
	.uleb128 0xb
	.uleb128 0x6e
	.uleb128 0xe
	.uleb128 0x49
	.uleb128 0x13
	.uleb128 0x3c
	.uleb128 0x19
	.uleb128 0x1
	.uleb128 0x13
	.byte	0
	.byte	0
	.uleb128 0x22
	.uleb128 0x30
	.byte	0
	.uleb128 0x3
	.uleb128 0x8
	.uleb128 0x49
	.uleb128 0x13
	.uleb128 0x1c
	.uleb128 0xb
	.byte	0
	.byte	0
	.uleb128 0x23
	.uleb128 0x2f
	.byte	0
	.uleb128 0x3
	.uleb128 0xe
	.uleb128 0x49
	.uleb128 0x13
	.byte	0
	.byte	0
	.uleb128 0x24
	.uleb128 0x30
	.byte	0
	.uleb128 0x3
	.uleb128 0x8
	.uleb128 0x49
	.uleb128 0x13
	.uleb128 0x1c
	.uleb128 0xd
	.byte	0
	.byte	0
	.uleb128 0x25
	.uleb128 0x2e
	.byte	0x1
	.uleb128 0x47
	.uleb128 0x13
	.uleb128 0x20
	.uleb128 0xb
	.uleb128 0x1
	.uleb128 0x13
	.byte	0
	.byte	0
	.uleb128 0x26
	.uleb128 0x5
	.byte	0
	.uleb128 0x3
	.uleb128 0x8
	.uleb128 0x3a
	.uleb128 0xb
	.uleb128 0x3b
	.uleb128 0xb
	.uleb128 0x39
	.uleb128 0xb
	.uleb128 0x49
	.uleb128 0x13
	.byte	0
	.byte	0
	.uleb128 0x27
	.uleb128 0x34
	.byte	0
	.uleb128 0x3
	.uleb128 0x8
	.uleb128 0x3a
	.uleb128 0xb
	.uleb128 0x3b
	.uleb128 0xb
	.uleb128 0x39
	.uleb128 0xb
	.uleb128 0x49
	.uleb128 0x13
	.byte	0
	.byte	0
	.uleb128 0x28
	.uleb128 0x2e
	.byte	0x1
	.uleb128 0x3
	.uleb128 0xe
	.uleb128 0x3a
	.uleb128 0xb
	.uleb128 0x3b
	.uleb128 0xb
	.uleb128 0x39
	.uleb128 0xb
	.uleb128 0x49
	.uleb128 0x13
	.uleb128 0x20
	.uleb128 0xb
	.uleb128 0x1
	.uleb128 0x13
	.byte	0
	.byte	0
	.uleb128 0x29
	.uleb128 0x2e
	.byte	0x1
	.uleb128 0x3
	.uleb128 0xe
	.uleb128 0x3a
	.uleb128 0xb
	.uleb128 0x3b
	.uleb128 0xb
	.uleb128 0x39
	.uleb128 0xb
	.uleb128 0x20
	.uleb128 0xb
	.uleb128 0x1
	.uleb128 0x13
	.byte	0
	.byte	0
	.uleb128 0x2a
	.uleb128 0x30
	.byte	0
	.uleb128 0x3
	.uleb128 0xe
	.uleb128 0x49
	.uleb128 0x13
	.uleb128 0x1c
	.uleb128 0xb
	.byte	0
	.byte	0
	.uleb128 0x2b
	.uleb128 0xb
	.byte	0x1
	.byte	0
	.byte	0
	.uleb128 0x2c
	.uleb128 0x2e
	.byte	0x1
	.uleb128 0x3f
	.uleb128 0x19
	.uleb128 0x3
	.uleb128 0xe
	.uleb128 0x3a
	.uleb128 0xb
	.uleb128 0x3b
	.uleb128 0xb
	.uleb128 0x39
	.uleb128 0xb
	.uleb128 0x6e
	.uleb128 0xe
	.uleb128 0x20
	.uleb128 0xb
	.uleb128 0x1
	.uleb128 0x13
	.byte	0
	.byte	0
	.uleb128 0x2d
	.uleb128 0x2e
	.byte	0x1
	.uleb128 0x3f
	.uleb128 0x19
	.uleb128 0x3
	.uleb128 0xe
	.uleb128 0x3a
	.uleb128 0xb
	.uleb128 0x3b
	.uleb128 0xb
	.uleb128 0x39
	.uleb128 0xb
	.uleb128 0x49
	.uleb128 0x13
	.uleb128 0x11
	.uleb128 0x1
	.uleb128 0x12
	.uleb128 0x7
	.uleb128 0x40
	.uleb128 0x18
	.uleb128 0x2117
	.uleb128 0x19
	.uleb128 0x1
	.uleb128 0x13
	.byte	0
	.byte	0
	.uleb128 0x2e
	.uleb128 0x5
	.byte	0
	.uleb128 0x3
	.uleb128 0xe
	.uleb128 0x3a
	.uleb128 0xb
	.uleb128 0x3b
	.uleb128 0xb
	.uleb128 0x39
	.uleb128 0xb
	.uleb128 0x49
	.uleb128 0x13
	.uleb128 0x2
	.uleb128 0x17
	.uleb128 0x2137
	.uleb128 0x17
	.byte	0
	.byte	0
	.uleb128 0x2f
	.uleb128 0x34
	.byte	0
	.uleb128 0x3
	.uleb128 0xe
	.uleb128 0x3a
	.uleb128 0xb
	.uleb128 0x3b
	.uleb128 0xb
	.uleb128 0x39
	.uleb128 0xb
	.uleb128 0x49
	.uleb128 0x13
	.uleb128 0x1c
	.uleb128 0x5
	.byte	0
	.byte	0
	.uleb128 0x30
	.uleb128 0x34
	.byte	0
	.uleb128 0x3
	.uleb128 0xe
	.uleb128 0x3a
	.uleb128 0xb
	.uleb128 0x3b
	.uleb128 0xb
	.uleb128 0x39
	.uleb128 0xb
	.uleb128 0x49
	.uleb128 0x13
	.uleb128 0x1c
	.uleb128 0xb
	.byte	0
	.byte	0
	.uleb128 0x31
	.uleb128 0x34
	.byte	0
	.uleb128 0x3
	.uleb128 0xe
	.uleb128 0x3a
	.uleb128 0xb
	.uleb128 0x3b
	.uleb128 0xb
	.uleb128 0x39
	.uleb128 0xb
	.uleb128 0x49
	.uleb128 0x13
	.uleb128 0x1c
	.uleb128 0xa
	.byte	0
	.byte	0
	.uleb128 0x32
	.uleb128 0x34
	.byte	0
	.uleb128 0x3
	.uleb128 0xe
	.uleb128 0x49
	.uleb128 0x13
	.uleb128 0x34
	.uleb128 0x19
	.uleb128 0x6c
	.uleb128 0x19
	.uleb128 0x2
	.uleb128 0x18
	.byte	0
	.byte	0
	.uleb128 0x33
	.uleb128 0x34
	.byte	0
	.uleb128 0x3
	.uleb128 0xe
	.uleb128 0x3a
	.uleb128 0xb
	.uleb128 0x3b
	.uleb128 0xb
	.uleb128 0x39
	.uleb128 0xb
	.uleb128 0x49
	.uleb128 0x13
	.uleb128 0x2
	.uleb128 0x18
	.byte	0
	.byte	0
	.uleb128 0x34
	.uleb128 0x34
	.byte	0
	.uleb128 0x3
	.uleb128 0x8
	.uleb128 0x3a
	.uleb128 0xb
	.uleb128 0x3b
	.uleb128 0xb
	.uleb128 0x39
	.uleb128 0xb
	.uleb128 0x49
	.uleb128 0x13
	.uleb128 0x2
	.uleb128 0x18
	.byte	0
	.byte	0
	.uleb128 0x35
	.uleb128 0x34
	.byte	0
	.uleb128 0x3
	.uleb128 0xe
	.uleb128 0x3a
	.uleb128 0xb
	.uleb128 0x3b
	.uleb128 0xb
	.uleb128 0x39
	.uleb128 0xb
	.uleb128 0x49
	.uleb128 0x13
	.byte	0
	.byte	0
	.uleb128 0x36
	.uleb128 0xb
	.byte	0x1
	.uleb128 0x11
	.uleb128 0x1
	.uleb128 0x12
	.uleb128 0x7
	.uleb128 0x1
	.uleb128 0x13
	.byte	0
	.byte	0
	.uleb128 0x37
	.uleb128 0x34
	.byte	0
	.uleb128 0x3
	.uleb128 0x8
	.uleb128 0x3a
	.uleb128 0xb
	.uleb128 0x3b
	.uleb128 0xb
	.uleb128 0x39
	.uleb128 0xb
	.uleb128 0x49
	.uleb128 0x13
	.uleb128 0x2
	.uleb128 0x17
	.uleb128 0x2137
	.uleb128 0x17
	.byte	0
	.byte	0
	.uleb128 0x38
	.uleb128 0x1d
	.byte	0x1
	.uleb128 0x31
	.uleb128 0x13
	.uleb128 0x52
	.uleb128 0x1
	.uleb128 0x2138
	.uleb128 0xb
	.uleb128 0x11
	.uleb128 0x1
	.uleb128 0x12
	.uleb128 0x7
	.uleb128 0x58
	.uleb128 0xb
	.uleb128 0x59
	.uleb128 0xb
	.uleb128 0x57
	.uleb128 0xb
	.byte	0
	.byte	0
	.uleb128 0x39
	.uleb128 0x5
	.byte	0
	.uleb128 0x31
	.uleb128 0x13
	.uleb128 0x2
	.uleb128 0x17
	.uleb128 0x2137
	.uleb128 0x17
	.byte	0
	.byte	0
	.uleb128 0x3a
	.uleb128 0x4109
	.byte	0x1
	.uleb128 0x11
	.uleb128 0x1
	.uleb128 0x31
	.uleb128 0x13
	.byte	0
	.byte	0
	.uleb128 0x3b
	.uleb128 0x410a
	.byte	0
	.uleb128 0x2
	.uleb128 0x18
	.uleb128 0x2111
	.uleb128 0x18
	.byte	0
	.byte	0
	.uleb128 0x3c
	.uleb128 0x1d
	.byte	0x1
	.uleb128 0x31
	.uleb128 0x13
	.uleb128 0x11
	.uleb128 0x1
	.uleb128 0x12
	.uleb128 0x7
	.uleb128 0x58
	.uleb128 0xb
	.uleb128 0x59
	.uleb128 0xb
	.uleb128 0x57
	.uleb128 0xb
	.uleb128 0x1
	.uleb128 0x13
	.byte	0
	.byte	0
	.uleb128 0x3d
	.uleb128 0x5
	.byte	0
	.uleb128 0x31
	.uleb128 0x13
	.byte	0
	.byte	0
	.uleb128 0x3e
	.uleb128 0x1d
	.byte	0x1
	.uleb128 0x31
	.uleb128 0x13
	.uleb128 0x11
	.uleb128 0x1
	.uleb128 0x12
	.uleb128 0x7
	.uleb128 0x58
	.uleb128 0xb
	.uleb128 0x59
	.uleb128 0xb
	.uleb128 0x57
	.uleb128 0xb
	.byte	0
	.byte	0
	.uleb128 0x3f
	.uleb128 0x34
	.byte	0
	.uleb128 0x31
	.uleb128 0x13
	.byte	0
	.byte	0
	.uleb128 0x40
	.uleb128 0xb
	.byte	0x1
	.uleb128 0x31
	.uleb128 0x13
	.uleb128 0x11
	.uleb128 0x1
	.uleb128 0x12
	.uleb128 0x7
	.byte	0
	.byte	0
	.uleb128 0x41
	.uleb128 0x34
	.byte	0
	.uleb128 0x31
	.uleb128 0x13
	.uleb128 0x2
	.uleb128 0x17
	.uleb128 0x2137
	.uleb128 0x17
	.byte	0
	.byte	0
	.uleb128 0x42
	.uleb128 0x1d
	.byte	0x1
	.uleb128 0x31
	.uleb128 0x13
	.uleb128 0x52
	.uleb128 0x1
	.uleb128 0x2138
	.uleb128 0xb
	.uleb128 0x55
	.uleb128 0x17
	.uleb128 0x58
	.uleb128 0xb
	.uleb128 0x59
	.uleb128 0xb
	.uleb128 0x57
	.uleb128 0xb
	.byte	0
	.byte	0
	.uleb128 0x43
	.uleb128 0xb
	.byte	0x1
	.uleb128 0x55
	.uleb128 0x17
	.byte	0
	.byte	0
	.uleb128 0x44
	.uleb128 0x1d
	.byte	0x1
	.uleb128 0x31
	.uleb128 0x13
	.uleb128 0x52
	.uleb128 0x1
	.uleb128 0x2138
	.uleb128 0xb
	.uleb128 0x55
	.uleb128 0x17
	.uleb128 0x58
	.uleb128 0xb
	.uleb128 0x59
	.uleb128 0xb
	.uleb128 0x57
	.uleb128 0xb
	.uleb128 0x1
	.uleb128 0x13
	.byte	0
	.byte	0
	.uleb128 0x45
	.uleb128 0x4109
	.byte	0x1
	.uleb128 0x11
	.uleb128 0x1
	.uleb128 0x31
	.uleb128 0x13
	.uleb128 0x1
	.uleb128 0x13
	.byte	0
	.byte	0
	.uleb128 0x46
	.uleb128 0x4109
	.byte	0
	.uleb128 0x11
	.uleb128 0x1
	.uleb128 0x31
	.uleb128 0x13
	.byte	0
	.byte	0
	.uleb128 0x47
	.uleb128 0x1
	.byte	0x1
	.uleb128 0x49
	.uleb128 0x13
	.uleb128 0x1
	.uleb128 0x13
	.byte	0
	.byte	0
	.uleb128 0x48
	.uleb128 0x21
	.byte	0
	.uleb128 0x49
	.uleb128 0x13
	.uleb128 0x2f
	.uleb128 0xb
	.byte	0
	.byte	0
	.uleb128 0x49
	.uleb128 0x21
	.byte	0
	.uleb128 0x49
	.uleb128 0x13
	.uleb128 0x2f
	.uleb128 0x5
	.byte	0
	.byte	0
	.uleb128 0x4a
	.uleb128 0x2e
	.byte	0
	.uleb128 0x3f
	.uleb128 0x19
	.uleb128 0x3c
	.uleb128 0x19
	.uleb128 0x6e
	.uleb128 0xe
	.uleb128 0x3
	.uleb128 0xe
	.uleb128 0x3a
	.uleb128 0xb
	.uleb128 0x3b
	.uleb128 0xb
	.uleb128 0x39
	.uleb128 0xb
	.byte	0
	.byte	0
	.uleb128 0x4b
	.uleb128 0x2e
	.byte	0
	.uleb128 0x3f
	.uleb128 0x19
	.uleb128 0x3c
	.uleb128 0x19
	.uleb128 0x6e
	.uleb128 0xe
	.uleb128 0x3
	.uleb128 0xe
	.byte	0
	.byte	0
	.byte	0
	.section	.debug_loc,"",@progbits
.Ldebug_loc0:
.LVUS0:
	.uleb128 0
	.uleb128 .LVU23
	.uleb128 .LVU23
	.uleb128 .LVU97
	.uleb128 .LVU97
	.uleb128 .LVU99
	.uleb128 .LVU99
	.uleb128 0
.LLST0:
	.quad	.LVL0
	.quad	.LVL4
	.value	0x1
	.byte	0x55
	.quad	.LVL4
	.quad	.LVL19
	.value	0x4
	.byte	0xf3
	.uleb128 0x1
	.byte	0x55
	.byte	0x9f
	.quad	.LVL19
	.quad	.LVL21
	.value	0x1
	.byte	0x55
	.quad	.LVL21
	.quad	.LFE35
	.value	0x4
	.byte	0xf3
	.uleb128 0x1
	.byte	0x55
	.byte	0x9f
	.quad	0
	.quad	0
.LVUS1:
	.uleb128 0
	.uleb128 .LVU23
	.uleb128 .LVU23
	.uleb128 .LVU96
	.uleb128 .LVU96
	.uleb128 .LVU97
	.uleb128 .LVU97
	.uleb128 .LVU98
	.uleb128 .LVU98
	.uleb128 .LVU100
	.uleb128 .LVU100
	.uleb128 0
.LLST1:
	.quad	.LVL0
	.quad	.LVL4
	.value	0x1
	.byte	0x54
	.quad	.LVL4
	.quad	.LVL18
	.value	0x1
	.byte	0x56
	.quad	.LVL18
	.quad	.LVL19
	.value	0x4
	.byte	0xf3
	.uleb128 0x1
	.byte	0x54
	.byte	0x9f
	.quad	.LVL19
	.quad	.LVL20
	.value	0x1
	.byte	0x54
	.quad	.LVL20
	.quad	.LVL22
	.value	0x4
	.byte	0xf3
	.uleb128 0x1
	.byte	0x54
	.byte	0x9f
	.quad	.LVL22
	.quad	.LFE35
	.value	0x1
	.byte	0x56
	.quad	0
	.quad	0
.LVUS2:
	.uleb128 .LVU7
	.uleb128 .LVU10
	.uleb128 .LVU10
	.uleb128 .LVU13
	.uleb128 .LVU13
	.uleb128 .LVU16
	.uleb128 .LVU16
	.uleb128 .LVU20
	.uleb128 .LVU20
	.uleb128 .LVU97
	.uleb128 .LVU100
	.uleb128 0
.LLST2:
	.quad	.LVL2
	.quad	.LVL2
	.value	0x2
	.byte	0x30
	.byte	0x9f
	.quad	.LVL2
	.quad	.LVL2
	.value	0x2
	.byte	0x31
	.byte	0x9f
	.quad	.LVL2
	.quad	.LVL2
	.value	0x2
	.byte	0x32
	.byte	0x9f
	.quad	.LVL2
	.quad	.LVL3
	.value	0x2
	.byte	0x33
	.byte	0x9f
	.quad	.LVL3
	.quad	.LVL19
	.value	0x2
	.byte	0x34
	.byte	0x9f
	.quad	.LVL22
	.quad	.LFE35
	.value	0x2
	.byte	0x34
	.byte	0x9f
	.quad	0
	.quad	0
.LVUS3:
	.uleb128 .LVU21
	.uleb128 .LVU23
	.uleb128 .LVU23
	.uleb128 .LVU60
	.uleb128 .LVU60
	.uleb128 .LVU61
.LLST3:
	.quad	.LVL3
	.quad	.LVL4
	.value	0x2
	.byte	0x30
	.byte	0x9f
	.quad	.LVL4
	.quad	.LVL6
	.value	0x1
	.byte	0x5f
	.quad	.LVL6
	.quad	.LVL7
	.value	0x3
	.byte	0x7f
	.sleb128 1
	.byte	0x9f
	.quad	0
	.quad	0
.LVUS4:
	.uleb128 .LVU24
	.uleb128 .LVU27
.LLST4:
	.quad	.LVL4
	.quad	.LVL5-1
	.value	0x7
	.byte	0x7f
	.sleb128 1
	.byte	0x33
	.byte	0x24
	.byte	0x76
	.sleb128 0
	.byte	0x22
	.quad	0
	.quad	0
.LVUS5:
	.uleb128 .LVU69
	.uleb128 .LVU90
.LLST5:
	.quad	.LVL8
	.quad	.LVL17
	.value	0x1
	.byte	0x50
	.quad	0
	.quad	0
.LVUS6:
	.uleb128 .LVU69
	.uleb128 .LVU86
.LLST6:
	.quad	.LVL8
	.quad	.LVL15
	.value	0x1
	.byte	0x50
	.quad	0
	.quad	0
.LVUS7:
	.uleb128 .LVU69
	.uleb128 .LVU86
.LLST7:
	.quad	.LVL8
	.quad	.LVL15
	.value	0x6
	.byte	0xf2
	.long	.Ldebug_info0+3735
	.sleb128 16
	.quad	0
	.quad	0
.LVUS8:
	.uleb128 .LVU69
	.uleb128 .LVU86
.LLST8:
	.quad	.LVL8
	.quad	.LVL15
	.value	0x6
	.byte	0xf2
	.long	.Ldebug_info0+3723
	.sleb128 16
	.quad	0
	.quad	0
.LVUS9:
	.uleb128 .LVU69
	.uleb128 .LVU86
.LLST9:
	.quad	.LVL8
	.quad	.LVL15
	.value	0x5
	.byte	0x91
	.sleb128 -11600
	.byte	0x9f
	.quad	0
	.quad	0
.LVUS10:
	.uleb128 .LVU70
	.uleb128 .LVU86
.LLST10:
	.quad	.LVL8
	.quad	.LVL15
	.value	0x1
	.byte	0x50
	.quad	0
	.quad	0
.LVUS11:
	.uleb128 .LVU70
	.uleb128 .LVU86
.LLST11:
	.quad	.LVL8
	.quad	.LVL15
	.value	0x6
	.byte	0xf2
	.long	.Ldebug_info0+3735
	.sleb128 16
	.quad	0
	.quad	0
.LVUS12:
	.uleb128 .LVU70
	.uleb128 .LVU86
.LLST12:
	.quad	.LVL8
	.quad	.LVL15
	.value	0x6
	.byte	0xf2
	.long	.Ldebug_info0+3723
	.sleb128 16
	.quad	0
	.quad	0
.LVUS13:
	.uleb128 .LVU70
	.uleb128 .LVU86
.LLST13:
	.quad	.LVL8
	.quad	.LVL15
	.value	0x5
	.byte	0x91
	.sleb128 -11600
	.byte	0x9f
	.quad	0
	.quad	0
.LVUS14:
	.uleb128 .LVU71
	.uleb128 .LVU86
.LLST14:
	.quad	.LVL8
	.quad	.LVL15
	.value	0x5
	.byte	0x91
	.sleb128 -11640
	.byte	0x6
	.quad	0
	.quad	0
.LVUS15:
	.uleb128 .LVU71
	.uleb128 .LVU86
.LLST15:
	.quad	.LVL8
	.quad	.LVL15
	.value	0x5
	.byte	0x91
	.sleb128 -11624
	.byte	0x6
	.quad	0
	.quad	0
.LVUS16:
	.uleb128 .LVU71
	.uleb128 .LVU86
.LLST16:
	.quad	.LVL8
	.quad	.LVL15
	.value	0x5
	.byte	0x91
	.sleb128 -11632
	.byte	0x6
	.quad	0
	.quad	0
.LVUS17:
	.uleb128 .LVU71
	.uleb128 .LVU86
.LLST17:
	.quad	.LVL8
	.quad	.LVL15
	.value	0x5
	.byte	0x91
	.sleb128 -11648
	.byte	0x6
	.quad	0
	.quad	0
.LVUS18:
	.uleb128 .LVU80
	.uleb128 .LVU86
.LLST18:
	.quad	.LVL12
	.quad	.LVL15
	.value	0x1
	.byte	0x62
	.quad	0
	.quad	0
.LVUS19:
	.uleb128 .LVU83
	.uleb128 .LVU85
.LLST19:
	.quad	.LVL13
	.quad	.LVL14
	.value	0x1
	.byte	0x61
	.quad	0
	.quad	0
.LVUS20:
	.uleb128 .LVU71
	.uleb128 .LVU80
.LLST20:
	.quad	.LVL8
	.quad	.LVL12
	.value	0x1
	.byte	0x50
	.quad	0
	.quad	0
.LVUS21:
	.uleb128 .LVU71
	.uleb128 .LVU80
.LLST21:
	.quad	.LVL8
	.quad	.LVL12
	.value	0x6
	.byte	0xf2
	.long	.Ldebug_info0+3735
	.sleb128 48
	.quad	0
	.quad	0
.LVUS22:
	.uleb128 .LVU71
	.uleb128 .LVU80
.LLST22:
	.quad	.LVL8
	.quad	.LVL12
	.value	0x6
	.byte	0xf2
	.long	.Ldebug_info0+3723
	.sleb128 48
	.quad	0
	.quad	0
.LVUS23:
	.uleb128 .LVU71
	.uleb128 .LVU80
.LLST23:
	.quad	.LVL8
	.quad	.LVL12
	.value	0x15
	.byte	0x91
	.sleb128 -11640
	.byte	0x6
	.byte	0x94
	.byte	0x4
	.byte	0x8
	.byte	0x20
	.byte	0x24
	.byte	0x8
	.byte	0x20
	.byte	0x26
	.byte	0x91
	.sleb128 0
	.byte	0x22
	.byte	0xa
	.value	0x2d50
	.byte	0x1c
	.byte	0x9f
	.quad	0
	.quad	0
.LVUS24:
	.uleb128 .LVU72
	.uleb128 .LVU80
.LLST24:
	.quad	.LVL8
	.quad	.LVL12
	.value	0xb
	.byte	0x70
	.sleb128 0
	.byte	0x32
	.byte	0x24
	.byte	0x91
	.sleb128 0
	.byte	0x22
	.byte	0xa
	.value	0x2850
	.byte	0x1c
	.quad	0
	.quad	0
.LVUS25:
	.uleb128 .LVU72
	.uleb128 .LVU80
.LLST25:
	.quad	.LVL8
	.quad	.LVL12
	.value	0xb
	.byte	0x70
	.sleb128 0
	.byte	0x32
	.byte	0x24
	.byte	0x91
	.sleb128 0
	.byte	0x22
	.byte	0xa
	.value	0x2350
	.byte	0x1c
	.quad	0
	.quad	0
.LVUS26:
	.uleb128 .LVU76
	.uleb128 .LVU80
.LLST26:
	.quad	.LVL9
	.quad	.LVL12
	.value	0x1
	.byte	0x61
	.quad	0
	.quad	0
.LVUS27:
	.uleb128 .LVU76
	.uleb128 .LVU78
	.uleb128 .LVU78
	.uleb128 .LVU80
.LLST27:
	.quad	.LVL9
	.quad	.LVL11
	.value	0x1
	.byte	0x63
	.quad	.LVL11
	.quad	.LVL12
	.value	0x7
	.byte	0x70
	.sleb128 0
	.byte	0x32
	.byte	0x24
	.byte	0x7e
	.sleb128 0
	.byte	0x22
	.quad	0
	.quad	0
.LVUS28:
	.uleb128 .LVU77
	.uleb128 .LVU80
.LLST28:
	.quad	.LVL10
	.quad	.LVL12
	.value	0x5
	.byte	0x71
	.sleb128 0
	.byte	0x74
	.sleb128 0
	.byte	0x22
	.quad	0
	.quad	0
.LVUS29:
	.uleb128 .LVU77
	.uleb128 .LVU80
.LLST29:
	.quad	.LVL10
	.quad	.LVL12
	.value	0x5
	.byte	0x71
	.sleb128 0
	.byte	0x75
	.sleb128 0
	.byte	0x22
	.quad	0
	.quad	0
.LVUS30:
	.uleb128 .LVU80
	.uleb128 .LVU83
.LLST30:
	.quad	.LVL12
	.quad	.LVL13
	.value	0x1
	.byte	0x50
	.quad	0
	.quad	0
.LVUS31:
	.uleb128 .LVU80
	.uleb128 .LVU83
.LLST31:
	.quad	.LVL12
	.quad	.LVL13
	.value	0x6
	.byte	0xf2
	.long	.Ldebug_info0+3735
	.sleb128 48
	.quad	0
	.quad	0
.LVUS32:
	.uleb128 .LVU80
	.uleb128 .LVU83
.LLST32:
	.quad	.LVL12
	.quad	.LVL13
	.value	0x6
	.byte	0xf2
	.long	.Ldebug_info0+3723
	.sleb128 48
	.quad	0
	.quad	0
.LVUS33:
	.uleb128 .LVU80
	.uleb128 .LVU83
.LLST33:
	.quad	.LVL12
	.quad	.LVL13
	.value	0x15
	.byte	0x91
	.sleb128 -11624
	.byte	0x6
	.byte	0x94
	.byte	0x4
	.byte	0x8
	.byte	0x20
	.byte	0x24
	.byte	0x8
	.byte	0x20
	.byte	0x26
	.byte	0x91
	.sleb128 0
	.byte	0x22
	.byte	0xa
	.value	0x2d50
	.byte	0x1c
	.byte	0x9f
	.quad	0
	.quad	0
.LVUS34:
	.uleb128 .LVU82
	.uleb128 .LVU83
.LLST34:
	.quad	.LVL12
	.quad	.LVL13
	.value	0xb
	.byte	0x70
	.sleb128 0
	.byte	0x32
	.byte	0x24
	.byte	0x91
	.sleb128 0
	.byte	0x22
	.byte	0xa
	.value	0x2850
	.byte	0x1c
	.quad	0
	.quad	0
.LVUS35:
	.uleb128 .LVU82
	.uleb128 .LVU83
.LLST35:
	.quad	.LVL12
	.quad	.LVL13
	.value	0xb
	.byte	0x70
	.sleb128 0
	.byte	0x32
	.byte	0x24
	.byte	0x91
	.sleb128 0
	.byte	0x22
	.byte	0xa
	.value	0x2350
	.byte	0x1c
	.quad	0
	.quad	0
.LVUS36:
	.uleb128 .LVU82
	.uleb128 .LVU83
.LLST36:
	.quad	.LVL12
	.quad	.LVL13
	.value	0x1
	.byte	0x61
	.quad	0
	.quad	0
.LVUS37:
	.uleb128 .LVU82
	.uleb128 .LVU83
.LLST37:
	.quad	.LVL12
	.quad	.LVL13
	.value	0x5
	.byte	0x73
	.sleb128 0
	.byte	0x74
	.sleb128 0
	.byte	0x22
	.quad	0
	.quad	0
.LVUS38:
	.uleb128 .LVU82
	.uleb128 .LVU83
.LLST38:
	.quad	.LVL12
	.quad	.LVL13
	.value	0x5
	.byte	0x73
	.sleb128 0
	.byte	0x75
	.sleb128 0
	.byte	0x22
	.quad	0
	.quad	0
	.section	.debug_aranges,"",@progbits
	.long	0x2c
	.value	0x2
	.long	.Ldebug_info0
	.byte	0x8
	.byte	0
	.value	0
	.value	0
	.quad	.LFB35
	.quad	.LFE35-.LFB35
	.quad	0
	.quad	0
	.section	.debug_ranges,"",@progbits
.Ldebug_ranges0:
	.quad	.LBB118
	.quad	.LBE118
	.quad	.LBB131
	.quad	.LBE131
	.quad	0
	.quad	0
	.quad	.LBB121
	.quad	.LBE121
	.quad	.LBB127
	.quad	.LBE127
	.quad	0
	.quad	0
	.quad	.LBB124
	.quad	.LBE124
	.quad	.LBB128
	.quad	.LBE128
	.quad	0
	.quad	0
	.quad	.LFB35
	.quad	.LFE35
	.quad	0
	.quad	0
	.section	.debug_line,"",@progbits
.Ldebug_line0:
	.section	.debug_str,"MS",@progbits,1
.LASF60:
	.string	"atoll"
.LASF17:
	.string	"quot"
.LASF18:
	.string	"size_t"
.LASF7:
	.string	"__cxx11"
.LASF8:
	.string	"_ZSt3divll"
.LASF99:
	.string	"is_zero_stride"
.LASF87:
	.string	"is_all_zero_stride<2, -1, float, int>"
.LASF57:
	.string	"wcstombs"
.LASF24:
	.string	"7lldiv_t"
.LASF36:
	.string	"long long unsigned int"
.LASF106:
	.string	"_Z22ti_cpu_upsample_linearIfiLi2EEvPPcPKll"
.LASF83:
	.string	"data"
.LASF100:
	.string	"GNU C++14 9.3.0 -mavx -mfma -mavx2 -mtune=generic -march=x86-64 -g -O3 -fasynchronous-unwind-tables -fstack-protector-strong -fstack-clash-protection -fcf-protection"
.LASF38:
	.string	"atexit"
.LASF33:
	.string	"__int64_t"
.LASF19:
	.string	"div_t"
.LASF25:
	.string	"long long int"
.LASF30:
	.string	"signed char"
.LASF46:
	.string	"mblen"
.LASF96:
	.string	"__PRETTY_FUNCTION__"
.LASF76:
	.string	"InterpLinear<2, float, int>"
.LASF95:
	.string	"scale"
.LASF53:
	.string	"strtod"
.LASF63:
	.string	"strtof"
.LASF22:
	.string	"long int"
.LASF77:
	.string	"_ZN12InterpLinearILi2EfiE4evalEPcPS1_PKll"
.LASF54:
	.string	"strtol"
.LASF13:
	.string	"__float128"
.LASF23:
	.string	"ldiv_t"
.LASF15:
	.string	"double"
.LASF49:
	.string	"mbtowc"
.LASF51:
	.string	"qsort"
.LASF42:
	.string	"atol"
.LASF80:
	.string	"InterpLinear<1, float, int>"
.LASF12:
	.string	"__unknown__"
.LASF11:
	.string	"unsigned int"
.LASF65:
	.string	"__int128"
.LASF10:
	.string	"long unsigned int"
.LASF52:
	.string	"srand"
.LASF104:
	.string	"rand"
.LASF73:
	.string	"_ZN15IsAllZeroStrideILi2ELin1EfiE4evalEPKl"
.LASF20:
	.string	"5div_t"
.LASF27:
	.string	"short unsigned int"
.LASF43:
	.string	"bsearch"
.LASF59:
	.string	"lldiv"
.LASF79:
	.string	"_ZN15IsAllZeroStrideILi1ELin1EfiE4evalEPKl"
.LASF48:
	.string	"wchar_t"
.LASF68:
	.string	"index_t"
.LASF69:
	.string	"bool"
.LASF74:
	.string	"IsAllZeroStride<1, 1, float, int>"
.LASF90:
	.string	"ti_cpu_upsample_linear<float, int, 2>"
.LASF44:
	.string	"getenv"
.LASF97:
	.string	"output"
.LASF88:
	.string	"out_ndims"
.LASF67:
	.string	"scalar_t"
.LASF16:
	.string	"long double"
.LASF39:
	.string	"at_quick_exit"
.LASF45:
	.string	"ldiv"
.LASF50:
	.string	"quick_exit"
.LASF85:
	.string	"is_contiguous_stride<float, int>"
.LASF82:
	.string	"__nptr"
.LASF94:
	.string	"out_size"
.LASF14:
	.string	"float"
.LASF47:
	.string	"mbstowcs"
.LASF108:
	.string	"__assert_fail"
.LASF40:
	.string	"atof"
.LASF41:
	.string	"atoi"
.LASF70:
	.string	"IsAllZeroStride<2, 1, float, int>"
.LASF34:
	.string	"int32_t"
.LASF29:
	.string	"unsigned char"
.LASF21:
	.string	"6ldiv_t"
.LASF26:
	.string	"lldiv_t"
.LASF31:
	.string	"short int"
.LASF101:
	.string	"main.cpp"
.LASF64:
	.string	"strtold"
.LASF61:
	.string	"strtoll"
.LASF58:
	.string	"wctomb"
.LASF98:
	.string	"input"
.LASF4:
	.string	"_ZSt3absd"
.LASF2:
	.string	"_ZSt3abse"
.LASF3:
	.string	"_ZSt3absf"
.LASF0:
	.string	"_ZSt3absg"
.LASF9:
	.string	"_ZN9__gnu_cxx3divExx"
.LASF6:
	.string	"_ZSt3absl"
.LASF1:
	.string	"_ZSt3absn"
.LASF5:
	.string	"_ZSt3absx"
.LASF28:
	.string	"char"
.LASF71:
	.string	"IsAllZeroStride<2, -1, float, int>"
.LASF62:
	.string	"strtoull"
.LASF105:
	.string	"basic_loop<float, int, 2>"
.LASF81:
	.string	"_ZN12InterpLinearILi1EfiE4evalEPcPS1_PKll"
.LASF75:
	.string	"_ZN15IsAllZeroStrideILi1ELi1EfiE4evalEPKl"
.LASF109:
	.string	"__stack_chk_fail"
.LASF32:
	.string	"__int32_t"
.LASF89:
	.string	"is_all_zero_stride<2, 1, float, int>"
.LASF86:
	.string	"interp_linear<2, float, int>"
.LASF102:
	.string	"/interpolate-tensoriterator/inspect_assembly_code"
.LASF78:
	.string	"IsAllZeroStride<1, -1, float, int>"
.LASF72:
	.string	"_ZN15IsAllZeroStrideILi2ELi1EfiE4evalEPKl"
.LASF92:
	.string	"argv"
.LASF55:
	.string	"strtoul"
.LASF56:
	.string	"system"
.LASF37:
	.string	"__compar_fn_t"
.LASF91:
	.string	"argc"
.LASF35:
	.string	"int64_t"
.LASF107:
	.string	"main"
.LASF84:
	.string	"strides"
.LASF93:
	.string	"in_size"
.LASF103:
	.string	"__gnu_cxx"
.LASF66:
	.string	"eval"
	.ident	"GCC: (Ubuntu 9.3.0-17ubuntu1~20.04) 9.3.0"
	.section	.note.GNU-stack,"",@progbits
	.section	.note.gnu.property,"a"
	.align 8
	.long	 1f - 0f
	.long	 4f - 1f
	.long	 5
0:
	.string	 "GNU"
1:
	.align 8
	.long	 0xc0000002
	.long	 3f - 2f
2:
	.long	 0x3
3:
	.align 8
4:
